ARM GAS  C:\Users\alexc\AppData\Local\Temp\ccyDAKxo.s 			page 1


   1              		.cpu cortex-m4
   2              		.arch armv7e-m
   3              		.fpu fpv4-sp-d16
   4              		.eabi_attribute 27, 1
   5              		.eabi_attribute 28, 1
   6              		.eabi_attribute 20, 1
   7              		.eabi_attribute 21, 1
   8              		.eabi_attribute 23, 3
   9              		.eabi_attribute 24, 1
  10              		.eabi_attribute 25, 1
  11              		.eabi_attribute 26, 1
  12              		.eabi_attribute 30, 1
  13              		.eabi_attribute 34, 1
  14              		.eabi_attribute 18, 4
  15              		.file	"main.c"
  16              		.text
  17              	.Ltext0:
  18              		.cfi_sections	.debug_frame
  19              		.section	.text.Error_Handler,"ax",%progbits
  20              		.align	1
  21              		.global	Error_Handler
  22              		.syntax unified
  23              		.thumb
  24              		.thumb_func
  26              	Error_Handler:
  27              	.LFB334:
  28              		.file 1 "Core/Src/main.c"
   1:Core/Src/main.c **** /* USER CODE BEGIN Header */
   2:Core/Src/main.c **** /**
   3:Core/Src/main.c ****   ******************************************************************************
   4:Core/Src/main.c ****   * @file           : main.c
   5:Core/Src/main.c ****   * @brief          : Main program body
   6:Core/Src/main.c ****   ******************************************************************************
   7:Core/Src/main.c ****   * @attention
   8:Core/Src/main.c ****   *
   9:Core/Src/main.c ****   * Copyright (c) 2026 STMicroelectronics.
  10:Core/Src/main.c ****   * All rights reserved.
  11:Core/Src/main.c ****   *
  12:Core/Src/main.c ****   * This software is licensed under terms that can be found in the LICENSE file
  13:Core/Src/main.c ****   * in the root directory of this software component.
  14:Core/Src/main.c ****   * If no LICENSE file comes with this software, it is provided AS-IS.
  15:Core/Src/main.c ****   *
  16:Core/Src/main.c ****   ******************************************************************************
  17:Core/Src/main.c ****   */
  18:Core/Src/main.c **** /* USER CODE END Header */
  19:Core/Src/main.c **** /* Includes ------------------------------------------------------------------*/
  20:Core/Src/main.c **** #include "main.h"
  21:Core/Src/main.c **** #include <stm32g4xx_hal_flash.h>
  22:Core/Src/main.c **** #include <stm32g4xx_hal_rcc.h>
  23:Core/Src/main.c ****   /* USER CODE BEGIN SysInit */
  24:Core/Src/main.c **** #include <stdio.h>
  25:Core/Src/main.c **** #include <string.h>
  26:Core/Src/main.c **** #include <stm32g4xx_hal_uart.h>
  27:Core/Src/main.c **** #include <stm32g4xx_hal_adc.h>
  28:Core/Src/main.c **** #include <stm32g4xx_hal_tim.h>
  29:Core/Src/main.c **** #include <stm32g4xx_hal_pwr_ex.h>
  30:Core/Src/main.c **** 
ARM GAS  C:\Users\alexc\AppData\Local\Temp\ccyDAKxo.s 			page 2


  31:Core/Src/main.c **** /* Private includes ----------------------------------------------------------*/
  32:Core/Src/main.c **** /* USER CODE BEGIN Includes */
  33:Core/Src/main.c **** 
  34:Core/Src/main.c **** /* USER CODE END Includes */
  35:Core/Src/main.c **** 
  36:Core/Src/main.c **** /* Private typedef -----------------------------------------------------------*/
  37:Core/Src/main.c **** /* USER CODE BEGIN PTD */
  38:Core/Src/main.c **** 
  39:Core/Src/main.c **** /* USER CODE END PTD */
  40:Core/Src/main.c **** 
  41:Core/Src/main.c **** /* Private define ------------------------------------------------------------*/
  42:Core/Src/main.c **** /* USER CODE BEGIN PD */
  43:Core/Src/main.c **** 
  44:Core/Src/main.c **** /* USER CODE END PD */
  45:Core/Src/main.c **** 
  46:Core/Src/main.c **** /* Private macro -------------------------------------------------------------*/
  47:Core/Src/main.c **** /* USER CODE BEGIN PM */
  48:Core/Src/main.c **** 
  49:Core/Src/main.c **** /* USER CODE END PM */
  50:Core/Src/main.c **** 
  51:Core/Src/main.c **** /* Private variables ---------------------------------------------------------*/
  52:Core/Src/main.c **** 
  53:Core/Src/main.c **** /* USER CODE BEGIN PV */
  54:Core/Src/main.c **** 
  55:Core/Src/main.c **** /* USER CODE END PV */
  56:Core/Src/main.c **** 
  57:Core/Src/main.c **** /* Private function prototypes -----------------------------------------------*/
  58:Core/Src/main.c **** void SystemClock_Config(void);
  59:Core/Src/main.c **** /* USER CODE BEGIN PFP */
  60:Core/Src/main.c **** 
  61:Core/Src/main.c **** /* USER CODE END PFP */
  62:Core/Src/main.c **** 
  63:Core/Src/main.c **** /* Private user code ---------------------------------------------------------*/
  64:Core/Src/main.c **** /* USER CODE BEGIN 0 */
  65:Core/Src/main.c **** 
  66:Core/Src/main.c **** /* USER CODE END 0 */
  67:Core/Src/main.c **** 
  68:Core/Src/main.c **** /**
  69:Core/Src/main.c ****   * @brief  The application entry point.
  70:Core/Src/main.c ****   * @retval int
  71:Core/Src/main.c ****   */
  72:Core/Src/main.c **** int main(void)
  73:Core/Src/main.c **** {
  74:Core/Src/main.c **** 
  75:Core/Src/main.c ****   /* USER CODE BEGIN 1 */
  76:Core/Src/main.c **** 
  77:Core/Src/main.c ****   /* USER CODE END 1 */
  78:Core/Src/main.c **** 
  79:Core/Src/main.c ****   /* MCU Configuration--------------------------------------------------------*/
  80:Core/Src/main.c **** 
  81:Core/Src/main.c ****   /* Reset of all peripherals, Initializes the Flash interface and the Systick. */
  82:Core/Src/main.c ****   HAL_Init();
  83:Core/Src/main.c **** 
  84:Core/Src/main.c ****   /* USER CODE BEGIN Init */
  85:Core/Src/main.c **** 
  86:Core/Src/main.c ****   /* USER CODE END Init */
  87:Core/Src/main.c **** 
ARM GAS  C:\Users\alexc\AppData\Local\Temp\ccyDAKxo.s 			page 3


  88:Core/Src/main.c ****   /* Configure the system clock */
  89:Core/Src/main.c ****   SystemClock_Config();
  90:Core/Src/main.c **** 
  91:Core/Src/main.c **** 
  92:Core/Src/main.c **** 
  93:Core/Src/main.c ****   /* USER CODE BEGIN PV */
  94:Core/Src/main.c ****   static ADC_HandleTypeDef hadc1;           // static = zero-initialized, lives for program lifetim
  95:Core/Src/main.c ****   static UART_HandleTypeDef huart2;         // LPUART1 → Virtual COM port
  96:Core/Src/main.c ****   static TIM_HandleTypeDef htim3;           // TIM3 CH2 → PC7 (D9) servo PWM
  97:Core/Src/main.c **** 
  98:Core/Src/main.c ****   /* Initialize all configured peripherals */
  99:Core/Src/main.c **** 
 100:Core/Src/main.c ****   // --- GPIO: PA5 as push-pull output (LED) ---
 101:Core/Src/main.c ****   __HAL_RCC_GPIOA_CLK_ENABLE();
 102:Core/Src/main.c ****   GPIO_InitTypeDef GPIO_InitStruct = {0};
 103:Core/Src/main.c ****   GPIO_InitStruct.Pin   = GPIO_PIN_5;
 104:Core/Src/main.c ****   GPIO_InitStruct.Mode  = GPIO_MODE_OUTPUT_PP;
 105:Core/Src/main.c ****   GPIO_InitStruct.Pull  = GPIO_NOPULL;
 106:Core/Src/main.c ****   GPIO_InitStruct.Speed = GPIO_SPEED_FREQ_LOW;
 107:Core/Src/main.c ****   HAL_GPIO_Init(GPIOA, &GPIO_InitStruct);
 108:Core/Src/main.c **** 
 109:Core/Src/main.c ****   // --- GPIO: PA10 as digital input (D2 on Arduino header, sound sensor DO) ---
 110:Core/Src/main.c ****   // Most LM393-based sound sensors pull DO LOW on detection (active-low).
 111:Core/Src/main.c ****   // Use pull-up so the pin reads HIGH at rest and LOW when sound is detected.
 112:Core/Src/main.c ****   GPIO_InitStruct.Pin   = GPIO_PIN_10;
 113:Core/Src/main.c ****   GPIO_InitStruct.Mode  = GPIO_MODE_INPUT;
 114:Core/Src/main.c ****   GPIO_InitStruct.Pull  = GPIO_PULLUP;
 115:Core/Src/main.c ****   GPIO_InitStruct.Speed = 0;  // not used for inputs
 116:Core/Src/main.c ****   HAL_GPIO_Init(GPIOA, &GPIO_InitStruct);
 117:Core/Src/main.c **** 
 118:Core/Src/main.c ****   // --- ADC1 CH1: PA0 as analog input (A0 on Arduino header) ---
 119:Core/Src/main.c ****   __HAL_RCC_ADC12_CLK_ENABLE();
 120:Core/Src/main.c ****   GPIO_InitStruct.Pin  = GPIO_PIN_0;
 121:Core/Src/main.c ****   GPIO_InitStruct.Mode = GPIO_MODE_ANALOG;
 122:Core/Src/main.c ****   GPIO_InitStruct.Pull = GPIO_NOPULL;
 123:Core/Src/main.c ****   HAL_GPIO_Init(GPIOA, &GPIO_InitStruct);
 124:Core/Src/main.c ****   hadc1.Instance = ADC1;
 125:Core/Src/main.c ****   hadc1.Init.ClockPrescaler        = ADC_CLOCK_SYNC_PCLK_DIV2;
 126:Core/Src/main.c ****   hadc1.Init.Resolution            = ADC_RESOLUTION_12B;
 127:Core/Src/main.c ****   hadc1.Init.DataAlign             = ADC_DATAALIGN_RIGHT;
 128:Core/Src/main.c ****   hadc1.Init.ScanConvMode          = ADC_SCAN_DISABLE;
 129:Core/Src/main.c ****   hadc1.Init.EOCSelection          = ADC_EOC_SINGLE_CONV;
 130:Core/Src/main.c ****   hadc1.Init.ContinuousConvMode    = DISABLE;
 131:Core/Src/main.c ****   hadc1.Init.NbrOfConversion       = 1;
 132:Core/Src/main.c ****   hadc1.Init.DiscontinuousConvMode = DISABLE;
 133:Core/Src/main.c ****   hadc1.Init.ExternalTrigConv      = ADC_SOFTWARE_START;
 134:Core/Src/main.c ****   hadc1.Init.ExternalTrigConvEdge  = ADC_EXTERNALTRIGCONVEDGE_NONE;
 135:Core/Src/main.c ****   hadc1.Init.OversamplingMode      = DISABLE;
 136:Core/Src/main.c ****   HAL_ADC_Init(&hadc1);
 137:Core/Src/main.c **** 
 138:Core/Src/main.c ****   ADC_ChannelConfTypeDef sConfig = {0};
 139:Core/Src/main.c ****   sConfig.Channel      = ADC_CHANNEL_1;   // PA0 = ADC12_IN1
 140:Core/Src/main.c ****   sConfig.Rank         = ADC_REGULAR_RANK_1;
 141:Core/Src/main.c ****   sConfig.SamplingTime = ADC_SAMPLETIME_47CYCLES_5;
 142:Core/Src/main.c ****   HAL_ADC_ConfigChannel(&hadc1, &sConfig);
 143:Core/Src/main.c **** 
 144:Core/Src/main.c ****   HAL_ADCEx_Calibration_Start(&hadc1, ADC_SINGLE_ENDED);
ARM GAS  C:\Users\alexc\AppData\Local\Temp\ccyDAKxo.s 			page 4


 145:Core/Src/main.c **** 
 146:Core/Src/main.c ****   // --- LPUART1: PA2(TX)/PA3(RX) → Virtual COM port at 9600 ---
 147:Core/Src/main.c ****   // LPUART1 requires an explicit peripheral clock source on STM32G4.
 148:Core/Src/main.c ****   // Route it to HSI (16 MHz) so baud rate calculation is correct.
 149:Core/Src/main.c ****   RCC_PeriphCLKInitTypeDef PeriphClkInit = {0};
 150:Core/Src/main.c ****   PeriphClkInit.PeriphClockSelection = RCC_PERIPHCLK_LPUART1;
 151:Core/Src/main.c ****   PeriphClkInit.Lpuart1ClockSelection = RCC_LPUART1CLKSOURCE_HSI;
 152:Core/Src/main.c ****   HAL_RCCEx_PeriphCLKConfig(&PeriphClkInit);
 153:Core/Src/main.c ****   __HAL_RCC_LPUART1_CLK_ENABLE();
 154:Core/Src/main.c ****   GPIO_InitStruct.Pin       = GPIO_PIN_2 | GPIO_PIN_3;
 155:Core/Src/main.c ****   GPIO_InitStruct.Mode      = GPIO_MODE_AF_PP;
 156:Core/Src/main.c ****   GPIO_InitStruct.Pull      = GPIO_NOPULL;
 157:Core/Src/main.c ****   GPIO_InitStruct.Speed     = GPIO_SPEED_FREQ_LOW;
 158:Core/Src/main.c ****   GPIO_InitStruct.Alternate = GPIO_AF12_LPUART1;
 159:Core/Src/main.c ****   HAL_GPIO_Init(GPIOA, &GPIO_InitStruct);
 160:Core/Src/main.c **** 
 161:Core/Src/main.c ****   huart2.Instance          = LPUART1;
 162:Core/Src/main.c ****   huart2.Init.BaudRate     = 9600;
 163:Core/Src/main.c ****   huart2.Init.WordLength   = UART_WORDLENGTH_8B;
 164:Core/Src/main.c ****   huart2.Init.StopBits     = UART_STOPBITS_1;
 165:Core/Src/main.c ****   huart2.Init.Parity       = UART_PARITY_NONE;
 166:Core/Src/main.c ****   huart2.Init.Mode         = UART_MODE_TX_RX;
 167:Core/Src/main.c ****   huart2.Init.HwFlowCtl    = UART_HWCONTROL_NONE;
 168:Core/Src/main.c ****   HAL_UART_Init(&huart2);
 169:Core/Src/main.c **** 
 170:Core/Src/main.c ****   // --- TIM3 CH2: PC7 (D9 on CN5) as PWM output for SG90 servo ---
 171:Core/Src/main.c ****   // System clock = HSI = 16 MHz
 172:Core/Src/main.c ****   // Prescaler = 15 → timer clock = 16MHz / 16 = 1 MHz (1 µs per tick)
 173:Core/Src/main.c ****   // Period = 19999 → 20 ms frame (50 Hz), counts 0..19999
 174:Core/Src/main.c ****   // CCR range: 1000 = 1.0 ms (-90°), 1500 = 1.5 ms (0°), 2000 = 2.0 ms (+90°)
 175:Core/Src/main.c ****   __HAL_RCC_GPIOC_CLK_ENABLE();
 176:Core/Src/main.c ****   __HAL_RCC_TIM3_CLK_ENABLE();
 177:Core/Src/main.c ****   GPIO_InitStruct.Pin       = GPIO_PIN_7;
 178:Core/Src/main.c ****   GPIO_InitStruct.Mode      = GPIO_MODE_AF_PP;
 179:Core/Src/main.c ****   GPIO_InitStruct.Pull      = GPIO_NOPULL;
 180:Core/Src/main.c ****   GPIO_InitStruct.Speed     = GPIO_SPEED_FREQ_LOW;
 181:Core/Src/main.c ****   GPIO_InitStruct.Alternate = GPIO_AF2_TIM3;
 182:Core/Src/main.c ****   HAL_GPIO_Init(GPIOC, &GPIO_InitStruct);
 183:Core/Src/main.c **** 
 184:Core/Src/main.c ****   htim3.Instance               = TIM3;
 185:Core/Src/main.c ****   htim3.Init.Prescaler         = 15;          // 16 MHz / 16 = 1 MHz
 186:Core/Src/main.c ****   htim3.Init.CounterMode       = TIM_COUNTERMODE_UP;
 187:Core/Src/main.c ****   htim3.Init.Period            = 19999;        // 20 ms
 188:Core/Src/main.c ****   htim3.Init.ClockDivision     = TIM_CLOCKDIVISION_DIV1;
 189:Core/Src/main.c ****   htim3.Init.RepetitionCounter = 0;
 190:Core/Src/main.c ****   htim3.Init.AutoReloadPreload = TIM_AUTORELOAD_PRELOAD_ENABLE;
 191:Core/Src/main.c ****   HAL_TIM_PWM_Init(&htim3);
 192:Core/Src/main.c **** 
 193:Core/Src/main.c ****   TIM_OC_InitTypeDef sConfigOC = {0};
 194:Core/Src/main.c ****   sConfigOC.OCMode       = TIM_OCMODE_PWM1;
 195:Core/Src/main.c ****   sConfigOC.Pulse        = 1500;              // start at 0° (centre)
 196:Core/Src/main.c ****   sConfigOC.OCPolarity   = TIM_OCPOLARITY_HIGH;
 197:Core/Src/main.c ****   sConfigOC.OCFastMode   = TIM_OCFAST_DISABLE;
 198:Core/Src/main.c ****   HAL_TIM_PWM_ConfigChannel(&htim3, &sConfigOC, TIM_CHANNEL_2);
 199:Core/Src/main.c ****   HAL_TIM_PWM_Start(&htim3, TIM_CHANNEL_2);
 200:Core/Src/main.c **** 
 201:Core/Src/main.c ****   /* USER CODE BEGIN 2 */
ARM GAS  C:\Users\alexc\AppData\Local\Temp\ccyDAKxo.s 			page 5


 202:Core/Src/main.c **** 
 203:Core/Src/main.c ****   /* USER CODE END 2 */
 204:Core/Src/main.c **** 
 205:Core/Src/main.c ****   // --- Startup banner ---
 206:Core/Src/main.c ****   const char *banner =
 207:Core/Src/main.c ****       "\r\n=== Blink Firmware Ready ===\r\n"
 208:Core/Src/main.c ****       "Servo : TIM3 CH2 -> PC7 (D9)\r\n"
 209:Core/Src/main.c ****       "Sound : PA10 (D2) digital, PA0 (A0) analog\r\n"
 210:Core/Src/main.c ****       "UART  : 9600 8N1\r\n"
 211:Core/Src/main.c ****       "============================\r\n\r\n";
 212:Core/Src/main.c ****   HAL_UART_Transmit(&huart2, (uint8_t*)banner, strlen(banner), 500);
 213:Core/Src/main.c **** 
 214:Core/Src/main.c ****   /* Infinite loop */
 215:Core/Src/main.c ****   /* USER CODE BEGIN WHILE */
 216:Core/Src/main.c **** 
 217:Core/Src/main.c ****   // --- Servo state ---
 218:Core/Src/main.c ****   // Position in µs CCR: 1000 = -90°, 1500 = 0°, 2000 = +90°
 219:Core/Src/main.c ****   // 45° = 500/4 = 125 µs step
 220:Core/Src/main.c ****   // Direction: +1 = clockwise (+45° per trigger), -1 = anticlockwise
 221:Core/Src/main.c ****   int32_t  servo_pos_us  = 1500;   // start at centre (0°)
 222:Core/Src/main.c ****   int8_t   servo_dir     = 1;      // currently moving clockwise
 223:Core/Src/main.c ****   uint32_t last_move_ms  = 0;      // timestamp of last servo move
 224:Core/Src/main.c **** 
 225:Core/Src/main.c ****   while (1)
 226:Core/Src/main.c ****   {
 227:Core/Src/main.c ****     /* USER CODE END WHILE */
 228:Core/Src/main.c ****      // Read ADC
 229:Core/Src/main.c ****     HAL_ADC_Start(&hadc1);
 230:Core/Src/main.c ****     HAL_ADC_PollForConversion(&hadc1, 10);
 231:Core/Src/main.c ****     uint32_t raw = HAL_ADC_GetValue(&hadc1);
 232:Core/Src/main.c ****     // Compute voltage in integer mV to avoid float printf issues: 3300mV / 4095
 233:Core/Src/main.c ****     uint32_t voltage_mv = (raw * 3300UL) / 4095UL;
 234:Core/Src/main.c **** 
 235:Core/Src/main.c ****     // Read digital pin
 236:Core/Src/main.c ****     GPIO_PinState digital = HAL_GPIO_ReadPin(GPIOA, GPIO_PIN_10);
 237:Core/Src/main.c **** 
 238:Core/Src/main.c ****     if (digital == GPIO_PIN_RESET)   // active-low: sensor pulls DO low on detection
 239:Core/Src/main.c ****     {
 240:Core/Src/main.c ****       HAL_GPIO_TogglePin(GPIOA, GPIO_PIN_5);
 241:Core/Src/main.c **** 
 242:Core/Src/main.c ****       // Move servo 45° in current direction, max 1 move per second
 243:Core/Src/main.c ****       uint32_t now = HAL_GetTick();
 244:Core/Src/main.c ****       if ((now - last_move_ms) >= 1000)
 245:Core/Src/main.c ****       {
 246:Core/Src/main.c ****         last_move_ms  = now;
 247:Core/Src/main.c ****         servo_pos_us += servo_dir * 125;   // 45° = 125 µs
 248:Core/Src/main.c **** 
 249:Core/Src/main.c ****         // Clamp and reverse direction at limits (-90° = 1000 µs, +90° = 2000 µs)
 250:Core/Src/main.c ****         if (servo_pos_us >= 2000)
 251:Core/Src/main.c ****         {
 252:Core/Src/main.c ****           servo_pos_us = 2000;
 253:Core/Src/main.c ****           servo_dir    = -1;   // hit +90°, reverse to anticlockwise
 254:Core/Src/main.c ****         }
 255:Core/Src/main.c ****         else if (servo_pos_us <= 1000)
 256:Core/Src/main.c ****         {
 257:Core/Src/main.c ****           servo_pos_us = 1000;
 258:Core/Src/main.c ****           servo_dir    = 1;    // hit -90°, reverse to clockwise
ARM GAS  C:\Users\alexc\AppData\Local\Temp\ccyDAKxo.s 			page 6


 259:Core/Src/main.c ****         }
 260:Core/Src/main.c **** 
 261:Core/Src/main.c ****         __HAL_TIM_SET_COMPARE(&htim3, TIM_CHANNEL_2, (uint32_t)servo_pos_us);
 262:Core/Src/main.c ****       }
 263:Core/Src/main.c **** 
 264:Core/Src/main.c ****       HAL_Delay(500);   // debounce: ignore further triggers for 500 ms
 265:Core/Src/main.c ****     }
 266:Core/Src/main.c **** 
 267:Core/Src/main.c ****     // Format and send over UART (voltage in mV, no float needed)
 268:Core/Src/main.c ****     char buf[80];
 269:Core/Src/main.c ****     int len = snprintf(buf, sizeof(buf),
 270:Core/Src/main.c ****         "Analog: %u.%03uV, Sound: %s\r\n",
 271:Core/Src/main.c ****         (unsigned int)(voltage_mv / 1000UL),
 272:Core/Src/main.c ****         (unsigned int)(voltage_mv % 1000UL),
 273:Core/Src/main.c ****         (digital == GPIO_PIN_RESET) ? "DETECTED" : "quiet");
 274:Core/Src/main.c ****     HAL_UART_Transmit(&huart2, (uint8_t*)buf, len, 100);
 275:Core/Src/main.c **** 
 276:Core/Src/main.c ****     HAL_Delay(200);
 277:Core/Src/main.c ****     /* USER CODE BEGIN 3 */
 278:Core/Src/main.c ****   }
 279:Core/Src/main.c ****   /* USER CODE END 3 */
 280:Core/Src/main.c **** }
 281:Core/Src/main.c **** /**
 282:Core/Src/main.c ****   * @brief System Clock Configuration
 283:Core/Src/main.c ****   * @retval None
 284:Core/Src/main.c ****   */
 285:Core/Src/main.c **** void SystemClock_Config(void)
 286:Core/Src/main.c **** {
 287:Core/Src/main.c ****   RCC_OscInitTypeDef RCC_OscInitStruct = {0};
 288:Core/Src/main.c ****   RCC_ClkInitTypeDef RCC_ClkInitStruct = {0};
 289:Core/Src/main.c **** 
 290:Core/Src/main.c ****   /** Configure the main internal regulator output voltage
 291:Core/Src/main.c ****   */
 292:Core/Src/main.c ****   HAL_PWREx_ControlVoltageScaling(PWR_REGULATOR_VOLTAGE_SCALE1);
 293:Core/Src/main.c **** 
 294:Core/Src/main.c ****   /** Initializes the RCC Oscillators according to the specified parameters
 295:Core/Src/main.c ****   * in the RCC_OscInitTypeDef structure.
 296:Core/Src/main.c ****   */
 297:Core/Src/main.c ****   RCC_OscInitStruct.OscillatorType = RCC_OSCILLATORTYPE_HSI;
 298:Core/Src/main.c ****   RCC_OscInitStruct.HSIState = RCC_HSI_ON;
 299:Core/Src/main.c ****   RCC_OscInitStruct.HSICalibrationValue = RCC_HSICALIBRATION_DEFAULT;
 300:Core/Src/main.c ****   RCC_OscInitStruct.PLL.PLLState = RCC_PLL_NONE;
 301:Core/Src/main.c ****   if (HAL_RCC_OscConfig(&RCC_OscInitStruct) != HAL_OK)
 302:Core/Src/main.c ****   {
 303:Core/Src/main.c ****     Error_Handler();
 304:Core/Src/main.c ****   }
 305:Core/Src/main.c **** 
 306:Core/Src/main.c ****   /** Initializes the CPU, AHB and APB buses clocks
 307:Core/Src/main.c ****   */
 308:Core/Src/main.c ****   RCC_ClkInitStruct.ClockType = RCC_CLOCKTYPE_HCLK|RCC_CLOCKTYPE_SYSCLK
 309:Core/Src/main.c ****                               |RCC_CLOCKTYPE_PCLK1|RCC_CLOCKTYPE_PCLK2;
 310:Core/Src/main.c ****   RCC_ClkInitStruct.SYSCLKSource = RCC_SYSCLKSOURCE_HSI;
 311:Core/Src/main.c ****   RCC_ClkInitStruct.AHBCLKDivider = RCC_SYSCLK_DIV1;
 312:Core/Src/main.c ****   RCC_ClkInitStruct.APB1CLKDivider = RCC_HCLK_DIV1;
 313:Core/Src/main.c ****   RCC_ClkInitStruct.APB2CLKDivider = RCC_HCLK_DIV1;
 314:Core/Src/main.c **** 
 315:Core/Src/main.c ****   if (HAL_RCC_ClockConfig(&RCC_ClkInitStruct, FLASH_LATENCY_0) != HAL_OK)
ARM GAS  C:\Users\alexc\AppData\Local\Temp\ccyDAKxo.s 			page 7


 316:Core/Src/main.c ****   {
 317:Core/Src/main.c ****     Error_Handler();
 318:Core/Src/main.c ****   }
 319:Core/Src/main.c **** }
 320:Core/Src/main.c **** 
 321:Core/Src/main.c **** /* USER CODE BEGIN 4 */
 322:Core/Src/main.c **** 
 323:Core/Src/main.c **** /* USER CODE END 4 */
 324:Core/Src/main.c **** 
 325:Core/Src/main.c **** /**
 326:Core/Src/main.c ****   * @brief  This function is executed in case of error occurrence.
 327:Core/Src/main.c ****   * @retval None
 328:Core/Src/main.c ****   */
 329:Core/Src/main.c **** void Error_Handler(void)
 330:Core/Src/main.c **** {
  29              		.loc 1 330 1 view -0
  30              		.cfi_startproc
  31              		@ Volatile: function does not return.
  32              		@ args = 0, pretend = 0, frame = 0
  33              		@ frame_needed = 0, uses_anonymous_args = 0
  34              		@ link register save eliminated.
 331:Core/Src/main.c ****   /* USER CODE BEGIN Error_Handler_Debug */
 332:Core/Src/main.c ****   /* User can add his own implementation to report the HAL error return state */
 333:Core/Src/main.c ****   __disable_irq();
  35              		.loc 1 333 3 view .LVU1
  36              	.LBB4:
  37              	.LBI4:
  38              		.file 2 "Drivers/CMSIS/Include/cmsis_gcc.h"
   1:Drivers/CMSIS/Include/cmsis_gcc.h **** /**************************************************************************//**
   2:Drivers/CMSIS/Include/cmsis_gcc.h ****  * @file     cmsis_gcc.h
   3:Drivers/CMSIS/Include/cmsis_gcc.h ****  * @brief    CMSIS compiler GCC header file
   4:Drivers/CMSIS/Include/cmsis_gcc.h ****  * @version  V5.2.0
   5:Drivers/CMSIS/Include/cmsis_gcc.h ****  * @date     08. May 2019
   6:Drivers/CMSIS/Include/cmsis_gcc.h ****  ******************************************************************************/
   7:Drivers/CMSIS/Include/cmsis_gcc.h **** /*
   8:Drivers/CMSIS/Include/cmsis_gcc.h ****  * Copyright (c) 2009-2019 Arm Limited. All rights reserved.
   9:Drivers/CMSIS/Include/cmsis_gcc.h ****  *
  10:Drivers/CMSIS/Include/cmsis_gcc.h ****  * SPDX-License-Identifier: Apache-2.0
  11:Drivers/CMSIS/Include/cmsis_gcc.h ****  *
  12:Drivers/CMSIS/Include/cmsis_gcc.h ****  * Licensed under the Apache License, Version 2.0 (the License); you may
  13:Drivers/CMSIS/Include/cmsis_gcc.h ****  * not use this file except in compliance with the License.
  14:Drivers/CMSIS/Include/cmsis_gcc.h ****  * You may obtain a copy of the License at
  15:Drivers/CMSIS/Include/cmsis_gcc.h ****  *
  16:Drivers/CMSIS/Include/cmsis_gcc.h ****  * www.apache.org/licenses/LICENSE-2.0
  17:Drivers/CMSIS/Include/cmsis_gcc.h ****  *
  18:Drivers/CMSIS/Include/cmsis_gcc.h ****  * Unless required by applicable law or agreed to in writing, software
  19:Drivers/CMSIS/Include/cmsis_gcc.h ****  * distributed under the License is distributed on an AS IS BASIS, WITHOUT
  20:Drivers/CMSIS/Include/cmsis_gcc.h ****  * WARRANTIES OR CONDITIONS OF ANY KIND, either express or implied.
  21:Drivers/CMSIS/Include/cmsis_gcc.h ****  * See the License for the specific language governing permissions and
  22:Drivers/CMSIS/Include/cmsis_gcc.h ****  * limitations under the License.
  23:Drivers/CMSIS/Include/cmsis_gcc.h ****  */
  24:Drivers/CMSIS/Include/cmsis_gcc.h **** 
  25:Drivers/CMSIS/Include/cmsis_gcc.h **** #ifndef __CMSIS_GCC_H
  26:Drivers/CMSIS/Include/cmsis_gcc.h **** #define __CMSIS_GCC_H
  27:Drivers/CMSIS/Include/cmsis_gcc.h **** 
  28:Drivers/CMSIS/Include/cmsis_gcc.h **** /* ignore some GCC warnings */
  29:Drivers/CMSIS/Include/cmsis_gcc.h **** #pragma GCC diagnostic push
ARM GAS  C:\Users\alexc\AppData\Local\Temp\ccyDAKxo.s 			page 8


  30:Drivers/CMSIS/Include/cmsis_gcc.h **** #pragma GCC diagnostic ignored "-Wsign-conversion"
  31:Drivers/CMSIS/Include/cmsis_gcc.h **** #pragma GCC diagnostic ignored "-Wconversion"
  32:Drivers/CMSIS/Include/cmsis_gcc.h **** #pragma GCC diagnostic ignored "-Wunused-parameter"
  33:Drivers/CMSIS/Include/cmsis_gcc.h **** 
  34:Drivers/CMSIS/Include/cmsis_gcc.h **** /* Fallback for __has_builtin */
  35:Drivers/CMSIS/Include/cmsis_gcc.h **** #ifndef __has_builtin
  36:Drivers/CMSIS/Include/cmsis_gcc.h ****   #define __has_builtin(x) (0)
  37:Drivers/CMSIS/Include/cmsis_gcc.h **** #endif
  38:Drivers/CMSIS/Include/cmsis_gcc.h **** 
  39:Drivers/CMSIS/Include/cmsis_gcc.h **** /* CMSIS compiler specific defines */
  40:Drivers/CMSIS/Include/cmsis_gcc.h **** #ifndef   __ASM
  41:Drivers/CMSIS/Include/cmsis_gcc.h ****   #define __ASM                                  __asm
  42:Drivers/CMSIS/Include/cmsis_gcc.h **** #endif
  43:Drivers/CMSIS/Include/cmsis_gcc.h **** #ifndef   __INLINE
  44:Drivers/CMSIS/Include/cmsis_gcc.h ****   #define __INLINE                               inline
  45:Drivers/CMSIS/Include/cmsis_gcc.h **** #endif
  46:Drivers/CMSIS/Include/cmsis_gcc.h **** #ifndef   __STATIC_INLINE
  47:Drivers/CMSIS/Include/cmsis_gcc.h ****   #define __STATIC_INLINE                        static inline
  48:Drivers/CMSIS/Include/cmsis_gcc.h **** #endif
  49:Drivers/CMSIS/Include/cmsis_gcc.h **** #ifndef   __STATIC_FORCEINLINE                 
  50:Drivers/CMSIS/Include/cmsis_gcc.h ****   #define __STATIC_FORCEINLINE                   __attribute__((always_inline)) static inline
  51:Drivers/CMSIS/Include/cmsis_gcc.h **** #endif                                           
  52:Drivers/CMSIS/Include/cmsis_gcc.h **** #ifndef   __NO_RETURN
  53:Drivers/CMSIS/Include/cmsis_gcc.h ****   #define __NO_RETURN                            __attribute__((__noreturn__))
  54:Drivers/CMSIS/Include/cmsis_gcc.h **** #endif
  55:Drivers/CMSIS/Include/cmsis_gcc.h **** #ifndef   __USED
  56:Drivers/CMSIS/Include/cmsis_gcc.h ****   #define __USED                                 __attribute__((used))
  57:Drivers/CMSIS/Include/cmsis_gcc.h **** #endif
  58:Drivers/CMSIS/Include/cmsis_gcc.h **** #ifndef   __WEAK
  59:Drivers/CMSIS/Include/cmsis_gcc.h ****   #define __WEAK                                 __attribute__((weak))
  60:Drivers/CMSIS/Include/cmsis_gcc.h **** #endif
  61:Drivers/CMSIS/Include/cmsis_gcc.h **** #ifndef   __PACKED
  62:Drivers/CMSIS/Include/cmsis_gcc.h ****   #define __PACKED                               __attribute__((packed, aligned(1)))
  63:Drivers/CMSIS/Include/cmsis_gcc.h **** #endif
  64:Drivers/CMSIS/Include/cmsis_gcc.h **** #ifndef   __PACKED_STRUCT
  65:Drivers/CMSIS/Include/cmsis_gcc.h ****   #define __PACKED_STRUCT                        struct __attribute__((packed, aligned(1)))
  66:Drivers/CMSIS/Include/cmsis_gcc.h **** #endif
  67:Drivers/CMSIS/Include/cmsis_gcc.h **** #ifndef   __PACKED_UNION
  68:Drivers/CMSIS/Include/cmsis_gcc.h ****   #define __PACKED_UNION                         union __attribute__((packed, aligned(1)))
  69:Drivers/CMSIS/Include/cmsis_gcc.h **** #endif
  70:Drivers/CMSIS/Include/cmsis_gcc.h **** #ifndef   __UNALIGNED_UINT32        /* deprecated */
  71:Drivers/CMSIS/Include/cmsis_gcc.h ****   #pragma GCC diagnostic push
  72:Drivers/CMSIS/Include/cmsis_gcc.h ****   #pragma GCC diagnostic ignored "-Wpacked"
  73:Drivers/CMSIS/Include/cmsis_gcc.h ****   #pragma GCC diagnostic ignored "-Wattributes"
  74:Drivers/CMSIS/Include/cmsis_gcc.h ****   struct __attribute__((packed)) T_UINT32 { uint32_t v; };
  75:Drivers/CMSIS/Include/cmsis_gcc.h ****   #pragma GCC diagnostic pop
  76:Drivers/CMSIS/Include/cmsis_gcc.h ****   #define __UNALIGNED_UINT32(x)                  (((struct T_UINT32 *)(x))->v)
  77:Drivers/CMSIS/Include/cmsis_gcc.h **** #endif
  78:Drivers/CMSIS/Include/cmsis_gcc.h **** #ifndef   __UNALIGNED_UINT16_WRITE
  79:Drivers/CMSIS/Include/cmsis_gcc.h ****   #pragma GCC diagnostic push
  80:Drivers/CMSIS/Include/cmsis_gcc.h ****   #pragma GCC diagnostic ignored "-Wpacked"
  81:Drivers/CMSIS/Include/cmsis_gcc.h ****   #pragma GCC diagnostic ignored "-Wattributes"
  82:Drivers/CMSIS/Include/cmsis_gcc.h ****   __PACKED_STRUCT T_UINT16_WRITE { uint16_t v; };
  83:Drivers/CMSIS/Include/cmsis_gcc.h ****   #pragma GCC diagnostic pop
  84:Drivers/CMSIS/Include/cmsis_gcc.h ****   #define __UNALIGNED_UINT16_WRITE(addr, val)    (void)((((struct T_UINT16_WRITE *)(void *)(addr))-
  85:Drivers/CMSIS/Include/cmsis_gcc.h **** #endif
  86:Drivers/CMSIS/Include/cmsis_gcc.h **** #ifndef   __UNALIGNED_UINT16_READ
ARM GAS  C:\Users\alexc\AppData\Local\Temp\ccyDAKxo.s 			page 9


  87:Drivers/CMSIS/Include/cmsis_gcc.h ****   #pragma GCC diagnostic push
  88:Drivers/CMSIS/Include/cmsis_gcc.h ****   #pragma GCC diagnostic ignored "-Wpacked"
  89:Drivers/CMSIS/Include/cmsis_gcc.h ****   #pragma GCC diagnostic ignored "-Wattributes"
  90:Drivers/CMSIS/Include/cmsis_gcc.h ****   __PACKED_STRUCT T_UINT16_READ { uint16_t v; };
  91:Drivers/CMSIS/Include/cmsis_gcc.h ****   #pragma GCC diagnostic pop
  92:Drivers/CMSIS/Include/cmsis_gcc.h ****   #define __UNALIGNED_UINT16_READ(addr)          (((const struct T_UINT16_READ *)(const void *)(add
  93:Drivers/CMSIS/Include/cmsis_gcc.h **** #endif
  94:Drivers/CMSIS/Include/cmsis_gcc.h **** #ifndef   __UNALIGNED_UINT32_WRITE
  95:Drivers/CMSIS/Include/cmsis_gcc.h ****   #pragma GCC diagnostic push
  96:Drivers/CMSIS/Include/cmsis_gcc.h ****   #pragma GCC diagnostic ignored "-Wpacked"
  97:Drivers/CMSIS/Include/cmsis_gcc.h ****   #pragma GCC diagnostic ignored "-Wattributes"
  98:Drivers/CMSIS/Include/cmsis_gcc.h ****   __PACKED_STRUCT T_UINT32_WRITE { uint32_t v; };
  99:Drivers/CMSIS/Include/cmsis_gcc.h ****   #pragma GCC diagnostic pop
 100:Drivers/CMSIS/Include/cmsis_gcc.h ****   #define __UNALIGNED_UINT32_WRITE(addr, val)    (void)((((struct T_UINT32_WRITE *)(void *)(addr))-
 101:Drivers/CMSIS/Include/cmsis_gcc.h **** #endif
 102:Drivers/CMSIS/Include/cmsis_gcc.h **** #ifndef   __UNALIGNED_UINT32_READ
 103:Drivers/CMSIS/Include/cmsis_gcc.h ****   #pragma GCC diagnostic push
 104:Drivers/CMSIS/Include/cmsis_gcc.h ****   #pragma GCC diagnostic ignored "-Wpacked"
 105:Drivers/CMSIS/Include/cmsis_gcc.h ****   #pragma GCC diagnostic ignored "-Wattributes"
 106:Drivers/CMSIS/Include/cmsis_gcc.h ****   __PACKED_STRUCT T_UINT32_READ { uint32_t v; };
 107:Drivers/CMSIS/Include/cmsis_gcc.h ****   #pragma GCC diagnostic pop
 108:Drivers/CMSIS/Include/cmsis_gcc.h ****   #define __UNALIGNED_UINT32_READ(addr)          (((const struct T_UINT32_READ *)(const void *)(add
 109:Drivers/CMSIS/Include/cmsis_gcc.h **** #endif
 110:Drivers/CMSIS/Include/cmsis_gcc.h **** #ifndef   __ALIGNED
 111:Drivers/CMSIS/Include/cmsis_gcc.h ****   #define __ALIGNED(x)                           __attribute__((aligned(x)))
 112:Drivers/CMSIS/Include/cmsis_gcc.h **** #endif
 113:Drivers/CMSIS/Include/cmsis_gcc.h **** #ifndef   __RESTRICT
 114:Drivers/CMSIS/Include/cmsis_gcc.h ****   #define __RESTRICT                             __restrict
 115:Drivers/CMSIS/Include/cmsis_gcc.h **** #endif
 116:Drivers/CMSIS/Include/cmsis_gcc.h **** #ifndef   __COMPILER_BARRIER
 117:Drivers/CMSIS/Include/cmsis_gcc.h ****   #define __COMPILER_BARRIER()                   __ASM volatile("":::"memory")
 118:Drivers/CMSIS/Include/cmsis_gcc.h **** #endif
 119:Drivers/CMSIS/Include/cmsis_gcc.h **** 
 120:Drivers/CMSIS/Include/cmsis_gcc.h **** /* #########################  Startup and Lowlevel Init  ######################## */
 121:Drivers/CMSIS/Include/cmsis_gcc.h **** 
 122:Drivers/CMSIS/Include/cmsis_gcc.h **** #ifndef __PROGRAM_START
 123:Drivers/CMSIS/Include/cmsis_gcc.h **** 
 124:Drivers/CMSIS/Include/cmsis_gcc.h **** /**
 125:Drivers/CMSIS/Include/cmsis_gcc.h ****   \brief   Initializes data and bss sections
 126:Drivers/CMSIS/Include/cmsis_gcc.h ****   \details This default implementations initialized all data and additional bss
 127:Drivers/CMSIS/Include/cmsis_gcc.h ****            sections relying on .copy.table and .zero.table specified properly
 128:Drivers/CMSIS/Include/cmsis_gcc.h ****            in the used linker script.
 129:Drivers/CMSIS/Include/cmsis_gcc.h ****   
 130:Drivers/CMSIS/Include/cmsis_gcc.h ****  */
 131:Drivers/CMSIS/Include/cmsis_gcc.h **** __STATIC_FORCEINLINE __NO_RETURN void __cmsis_start(void)
 132:Drivers/CMSIS/Include/cmsis_gcc.h **** {
 133:Drivers/CMSIS/Include/cmsis_gcc.h ****   extern void _start(void) __NO_RETURN;
 134:Drivers/CMSIS/Include/cmsis_gcc.h ****   
 135:Drivers/CMSIS/Include/cmsis_gcc.h ****   typedef struct {
 136:Drivers/CMSIS/Include/cmsis_gcc.h ****     uint32_t const* src;
 137:Drivers/CMSIS/Include/cmsis_gcc.h ****     uint32_t* dest;
 138:Drivers/CMSIS/Include/cmsis_gcc.h ****     uint32_t  wlen;
 139:Drivers/CMSIS/Include/cmsis_gcc.h ****   } __copy_table_t;
 140:Drivers/CMSIS/Include/cmsis_gcc.h ****   
 141:Drivers/CMSIS/Include/cmsis_gcc.h ****   typedef struct {
 142:Drivers/CMSIS/Include/cmsis_gcc.h ****     uint32_t* dest;
 143:Drivers/CMSIS/Include/cmsis_gcc.h ****     uint32_t  wlen;
ARM GAS  C:\Users\alexc\AppData\Local\Temp\ccyDAKxo.s 			page 10


 144:Drivers/CMSIS/Include/cmsis_gcc.h ****   } __zero_table_t;
 145:Drivers/CMSIS/Include/cmsis_gcc.h ****   
 146:Drivers/CMSIS/Include/cmsis_gcc.h ****   extern const __copy_table_t __copy_table_start__;
 147:Drivers/CMSIS/Include/cmsis_gcc.h ****   extern const __copy_table_t __copy_table_end__;
 148:Drivers/CMSIS/Include/cmsis_gcc.h ****   extern const __zero_table_t __zero_table_start__;
 149:Drivers/CMSIS/Include/cmsis_gcc.h ****   extern const __zero_table_t __zero_table_end__;
 150:Drivers/CMSIS/Include/cmsis_gcc.h **** 
 151:Drivers/CMSIS/Include/cmsis_gcc.h ****   for (__copy_table_t const* pTable = &__copy_table_start__; pTable < &__copy_table_end__; ++pTable
 152:Drivers/CMSIS/Include/cmsis_gcc.h ****     for(uint32_t i=0u; i<pTable->wlen; ++i) {
 153:Drivers/CMSIS/Include/cmsis_gcc.h ****       pTable->dest[i] = pTable->src[i];
 154:Drivers/CMSIS/Include/cmsis_gcc.h ****     }
 155:Drivers/CMSIS/Include/cmsis_gcc.h ****   }
 156:Drivers/CMSIS/Include/cmsis_gcc.h ****  
 157:Drivers/CMSIS/Include/cmsis_gcc.h ****   for (__zero_table_t const* pTable = &__zero_table_start__; pTable < &__zero_table_end__; ++pTable
 158:Drivers/CMSIS/Include/cmsis_gcc.h ****     for(uint32_t i=0u; i<pTable->wlen; ++i) {
 159:Drivers/CMSIS/Include/cmsis_gcc.h ****       pTable->dest[i] = 0u;
 160:Drivers/CMSIS/Include/cmsis_gcc.h ****     }
 161:Drivers/CMSIS/Include/cmsis_gcc.h ****   }
 162:Drivers/CMSIS/Include/cmsis_gcc.h ****  
 163:Drivers/CMSIS/Include/cmsis_gcc.h ****   _start();
 164:Drivers/CMSIS/Include/cmsis_gcc.h **** }
 165:Drivers/CMSIS/Include/cmsis_gcc.h ****   
 166:Drivers/CMSIS/Include/cmsis_gcc.h **** #define __PROGRAM_START           __cmsis_start
 167:Drivers/CMSIS/Include/cmsis_gcc.h **** #endif
 168:Drivers/CMSIS/Include/cmsis_gcc.h **** 
 169:Drivers/CMSIS/Include/cmsis_gcc.h **** #ifndef __INITIAL_SP
 170:Drivers/CMSIS/Include/cmsis_gcc.h **** #define __INITIAL_SP              __StackTop
 171:Drivers/CMSIS/Include/cmsis_gcc.h **** #endif
 172:Drivers/CMSIS/Include/cmsis_gcc.h **** 
 173:Drivers/CMSIS/Include/cmsis_gcc.h **** #ifndef __STACK_LIMIT
 174:Drivers/CMSIS/Include/cmsis_gcc.h **** #define __STACK_LIMIT             __StackLimit
 175:Drivers/CMSIS/Include/cmsis_gcc.h **** #endif
 176:Drivers/CMSIS/Include/cmsis_gcc.h **** 
 177:Drivers/CMSIS/Include/cmsis_gcc.h **** #ifndef __VECTOR_TABLE
 178:Drivers/CMSIS/Include/cmsis_gcc.h **** #define __VECTOR_TABLE            __Vectors
 179:Drivers/CMSIS/Include/cmsis_gcc.h **** #endif
 180:Drivers/CMSIS/Include/cmsis_gcc.h **** 
 181:Drivers/CMSIS/Include/cmsis_gcc.h **** #ifndef __VECTOR_TABLE_ATTRIBUTE
 182:Drivers/CMSIS/Include/cmsis_gcc.h **** #define __VECTOR_TABLE_ATTRIBUTE  __attribute((used, section(".vectors")))
 183:Drivers/CMSIS/Include/cmsis_gcc.h **** #endif
 184:Drivers/CMSIS/Include/cmsis_gcc.h **** 
 185:Drivers/CMSIS/Include/cmsis_gcc.h **** /* ###########################  Core Function Access  ########################### */
 186:Drivers/CMSIS/Include/cmsis_gcc.h **** /** \ingroup  CMSIS_Core_FunctionInterface
 187:Drivers/CMSIS/Include/cmsis_gcc.h ****     \defgroup CMSIS_Core_RegAccFunctions CMSIS Core Register Access Functions
 188:Drivers/CMSIS/Include/cmsis_gcc.h ****   @{
 189:Drivers/CMSIS/Include/cmsis_gcc.h ****  */
 190:Drivers/CMSIS/Include/cmsis_gcc.h **** 
 191:Drivers/CMSIS/Include/cmsis_gcc.h **** /**
 192:Drivers/CMSIS/Include/cmsis_gcc.h ****   \brief   Enable IRQ Interrupts
 193:Drivers/CMSIS/Include/cmsis_gcc.h ****   \details Enables IRQ interrupts by clearing the I-bit in the CPSR.
 194:Drivers/CMSIS/Include/cmsis_gcc.h ****            Can only be executed in Privileged modes.
 195:Drivers/CMSIS/Include/cmsis_gcc.h ****  */
 196:Drivers/CMSIS/Include/cmsis_gcc.h **** __STATIC_FORCEINLINE void __enable_irq(void)
 197:Drivers/CMSIS/Include/cmsis_gcc.h **** {
 198:Drivers/CMSIS/Include/cmsis_gcc.h ****   __ASM volatile ("cpsie i" : : : "memory");
 199:Drivers/CMSIS/Include/cmsis_gcc.h **** }
 200:Drivers/CMSIS/Include/cmsis_gcc.h **** 
ARM GAS  C:\Users\alexc\AppData\Local\Temp\ccyDAKxo.s 			page 11


 201:Drivers/CMSIS/Include/cmsis_gcc.h **** 
 202:Drivers/CMSIS/Include/cmsis_gcc.h **** /**
 203:Drivers/CMSIS/Include/cmsis_gcc.h ****   \brief   Disable IRQ Interrupts
 204:Drivers/CMSIS/Include/cmsis_gcc.h ****   \details Disables IRQ interrupts by setting the I-bit in the CPSR.
 205:Drivers/CMSIS/Include/cmsis_gcc.h ****            Can only be executed in Privileged modes.
 206:Drivers/CMSIS/Include/cmsis_gcc.h ****  */
 207:Drivers/CMSIS/Include/cmsis_gcc.h **** __STATIC_FORCEINLINE void __disable_irq(void)
  39              		.loc 2 207 27 view .LVU2
  40              	.LBB5:
 208:Drivers/CMSIS/Include/cmsis_gcc.h **** {
 209:Drivers/CMSIS/Include/cmsis_gcc.h ****   __ASM volatile ("cpsid i" : : : "memory");
  41              		.loc 2 209 3 view .LVU3
  42              		.syntax unified
  43              	@ 209 "Drivers/CMSIS/Include/cmsis_gcc.h" 1
  44 0000 72B6     		cpsid i
  45              	@ 0 "" 2
  46              		.thumb
  47              		.syntax unified
  48              	.L2:
  49              	.LBE5:
  50              	.LBE4:
 334:Core/Src/main.c ****   while (1)
  51              		.loc 1 334 3 discriminator 1 view .LVU4
 335:Core/Src/main.c ****   {
 336:Core/Src/main.c ****   }
  52              		.loc 1 336 3 discriminator 1 view .LVU5
 334:Core/Src/main.c ****   while (1)
  53              		.loc 1 334 9 discriminator 1 view .LVU6
  54 0002 FEE7     		b	.L2
  55              		.cfi_endproc
  56              	.LFE334:
  58              		.section	.text.SystemClock_Config,"ax",%progbits
  59              		.align	1
  60              		.global	SystemClock_Config
  61              		.syntax unified
  62              		.thumb
  63              		.thumb_func
  65              	SystemClock_Config:
  66              	.LFB333:
 286:Core/Src/main.c ****   RCC_OscInitTypeDef RCC_OscInitStruct = {0};
  67              		.loc 1 286 1 view -0
  68              		.cfi_startproc
  69              		@ args = 0, pretend = 0, frame = 80
  70              		@ frame_needed = 0, uses_anonymous_args = 0
  71 0000 10B5     		push	{r4, lr}
  72              	.LCFI0:
  73              		.cfi_def_cfa_offset 8
  74              		.cfi_offset 4, -8
  75              		.cfi_offset 14, -4
  76 0002 94B0     		sub	sp, sp, #80
  77              	.LCFI1:
  78              		.cfi_def_cfa_offset 88
 287:Core/Src/main.c ****   RCC_ClkInitTypeDef RCC_ClkInitStruct = {0};
  79              		.loc 1 287 3 view .LVU8
 287:Core/Src/main.c ****   RCC_ClkInitTypeDef RCC_ClkInitStruct = {0};
  80              		.loc 1 287 22 is_stmt 0 view .LVU9
  81 0004 3822     		movs	r2, #56
ARM GAS  C:\Users\alexc\AppData\Local\Temp\ccyDAKxo.s 			page 12


  82 0006 0021     		movs	r1, #0
  83 0008 06A8     		add	r0, sp, #24
  84 000a FFF7FEFF 		bl	memset
  85              	.LVL0:
 288:Core/Src/main.c **** 
  86              		.loc 1 288 3 is_stmt 1 view .LVU10
 288:Core/Src/main.c **** 
  87              		.loc 1 288 22 is_stmt 0 view .LVU11
  88 000e 0024     		movs	r4, #0
  89 0010 0194     		str	r4, [sp, #4]
  90 0012 0294     		str	r4, [sp, #8]
  91 0014 0394     		str	r4, [sp, #12]
  92 0016 0494     		str	r4, [sp, #16]
  93 0018 0594     		str	r4, [sp, #20]
 292:Core/Src/main.c **** 
  94              		.loc 1 292 3 is_stmt 1 view .LVU12
  95 001a 4FF40070 		mov	r0, #512
  96 001e FFF7FEFF 		bl	HAL_PWREx_ControlVoltageScaling
  97              	.LVL1:
 297:Core/Src/main.c ****   RCC_OscInitStruct.HSIState = RCC_HSI_ON;
  98              		.loc 1 297 3 view .LVU13
 297:Core/Src/main.c ****   RCC_OscInitStruct.HSIState = RCC_HSI_ON;
  99              		.loc 1 297 36 is_stmt 0 view .LVU14
 100 0022 0223     		movs	r3, #2
 101 0024 0693     		str	r3, [sp, #24]
 298:Core/Src/main.c ****   RCC_OscInitStruct.HSICalibrationValue = RCC_HSICALIBRATION_DEFAULT;
 102              		.loc 1 298 3 is_stmt 1 view .LVU15
 298:Core/Src/main.c ****   RCC_OscInitStruct.HSICalibrationValue = RCC_HSICALIBRATION_DEFAULT;
 103              		.loc 1 298 30 is_stmt 0 view .LVU16
 104 0026 4FF48073 		mov	r3, #256
 105 002a 0993     		str	r3, [sp, #36]
 299:Core/Src/main.c ****   RCC_OscInitStruct.PLL.PLLState = RCC_PLL_NONE;
 106              		.loc 1 299 3 is_stmt 1 view .LVU17
 299:Core/Src/main.c ****   RCC_OscInitStruct.PLL.PLLState = RCC_PLL_NONE;
 107              		.loc 1 299 41 is_stmt 0 view .LVU18
 108 002c 4023     		movs	r3, #64
 109 002e 0A93     		str	r3, [sp, #40]
 300:Core/Src/main.c ****   if (HAL_RCC_OscConfig(&RCC_OscInitStruct) != HAL_OK)
 110              		.loc 1 300 3 is_stmt 1 view .LVU19
 300:Core/Src/main.c ****   if (HAL_RCC_OscConfig(&RCC_OscInitStruct) != HAL_OK)
 111              		.loc 1 300 34 is_stmt 0 view .LVU20
 112 0030 0D94     		str	r4, [sp, #52]
 301:Core/Src/main.c ****   {
 113              		.loc 1 301 3 is_stmt 1 view .LVU21
 301:Core/Src/main.c ****   {
 114              		.loc 1 301 7 is_stmt 0 view .LVU22
 115 0032 06A8     		add	r0, sp, #24
 116 0034 FFF7FEFF 		bl	HAL_RCC_OscConfig
 117              	.LVL2:
 301:Core/Src/main.c ****   {
 118              		.loc 1 301 6 view .LVU23
 119 0038 68B9     		cbnz	r0, .L7
 308:Core/Src/main.c ****                               |RCC_CLOCKTYPE_PCLK1|RCC_CLOCKTYPE_PCLK2;
 120              		.loc 1 308 3 is_stmt 1 view .LVU24
 308:Core/Src/main.c ****                               |RCC_CLOCKTYPE_PCLK1|RCC_CLOCKTYPE_PCLK2;
 121              		.loc 1 308 31 is_stmt 0 view .LVU25
 122 003a 0F23     		movs	r3, #15
ARM GAS  C:\Users\alexc\AppData\Local\Temp\ccyDAKxo.s 			page 13


 123 003c 0193     		str	r3, [sp, #4]
 310:Core/Src/main.c ****   RCC_ClkInitStruct.AHBCLKDivider = RCC_SYSCLK_DIV1;
 124              		.loc 1 310 3 is_stmt 1 view .LVU26
 310:Core/Src/main.c ****   RCC_ClkInitStruct.AHBCLKDivider = RCC_SYSCLK_DIV1;
 125              		.loc 1 310 34 is_stmt 0 view .LVU27
 126 003e 0123     		movs	r3, #1
 127 0040 0293     		str	r3, [sp, #8]
 311:Core/Src/main.c ****   RCC_ClkInitStruct.APB1CLKDivider = RCC_HCLK_DIV1;
 128              		.loc 1 311 3 is_stmt 1 view .LVU28
 311:Core/Src/main.c ****   RCC_ClkInitStruct.APB1CLKDivider = RCC_HCLK_DIV1;
 129              		.loc 1 311 35 is_stmt 0 view .LVU29
 130 0042 0021     		movs	r1, #0
 131 0044 0391     		str	r1, [sp, #12]
 312:Core/Src/main.c ****   RCC_ClkInitStruct.APB2CLKDivider = RCC_HCLK_DIV1;
 132              		.loc 1 312 3 is_stmt 1 view .LVU30
 312:Core/Src/main.c ****   RCC_ClkInitStruct.APB2CLKDivider = RCC_HCLK_DIV1;
 133              		.loc 1 312 36 is_stmt 0 view .LVU31
 134 0046 0491     		str	r1, [sp, #16]
 313:Core/Src/main.c **** 
 135              		.loc 1 313 3 is_stmt 1 view .LVU32
 313:Core/Src/main.c **** 
 136              		.loc 1 313 36 is_stmt 0 view .LVU33
 137 0048 0591     		str	r1, [sp, #20]
 315:Core/Src/main.c ****   {
 138              		.loc 1 315 3 is_stmt 1 view .LVU34
 315:Core/Src/main.c ****   {
 139              		.loc 1 315 7 is_stmt 0 view .LVU35
 140 004a 01A8     		add	r0, sp, #4
 141 004c FFF7FEFF 		bl	HAL_RCC_ClockConfig
 142              	.LVL3:
 315:Core/Src/main.c ****   {
 143              		.loc 1 315 6 view .LVU36
 144 0050 18B9     		cbnz	r0, .L8
 319:Core/Src/main.c **** 
 145              		.loc 1 319 1 view .LVU37
 146 0052 14B0     		add	sp, sp, #80
 147              	.LCFI2:
 148              		.cfi_remember_state
 149              		.cfi_def_cfa_offset 8
 150              		@ sp needed
 151 0054 10BD     		pop	{r4, pc}
 152              	.L7:
 153              	.LCFI3:
 154              		.cfi_restore_state
 303:Core/Src/main.c ****   }
 155              		.loc 1 303 5 is_stmt 1 view .LVU38
 156 0056 FFF7FEFF 		bl	Error_Handler
 157              	.LVL4:
 158              	.L8:
 317:Core/Src/main.c ****   }
 159              		.loc 1 317 5 view .LVU39
 160 005a FFF7FEFF 		bl	Error_Handler
 161              	.LVL5:
 162              		.cfi_endproc
 163              	.LFE333:
 165              		.section	.rodata.main.str1.4,"aMS",%progbits,1
 166              		.align	2
ARM GAS  C:\Users\alexc\AppData\Local\Temp\ccyDAKxo.s 			page 14


 167              	.LC0:
 168 0000 71756965 		.ascii	"quiet\000"
 168      7400
 169 0006 0000     		.align	2
 170              	.LC1:
 171 0008 44455445 		.ascii	"DETECTED\000"
 171      43544544 
 171      00
 172 0011 000000   		.align	2
 173              	.LC2:
 174 0014 0D0A3D3D 		.ascii	"\015\012=== Blink Firmware Ready ===\015\012Servo :"
 174      3D20426C 
 174      696E6B20 
 174      4669726D 
 174      77617265 
 175 003b 2054494D 		.ascii	" TIM3 CH2 -> PC7 (D9)\015\012Sound : PA10 (D2) digi"
 175      33204348 
 175      32202D3E 
 175      20504337 
 175      20284439 
 176 0068 74616C2C 		.ascii	"tal, PA0 (A0) analog\015\012UART  : 9600 8N1\015\012"
 176      20504130 
 176      20284130 
 176      2920616E 
 176      616C6F67 
 177 0090 3D3D3D3D 		.ascii	"============================\015\012\015\012\000"
 177      3D3D3D3D 
 177      3D3D3D3D 
 177      3D3D3D3D 
 177      3D3D3D3D 
 178 00b1 000000   		.align	2
 179              	.LC3:
 180 00b4 416E616C 		.ascii	"Analog: %u.%03uV, Sound: %s\015\012\000"
 180      6F673A20 
 180      25752E25 
 180      30337556 
 180      2C20536F 
 181              		.section	.text.main,"ax",%progbits
 182              		.align	1
 183              		.global	main
 184              		.syntax unified
 185              		.thumb
 186              		.thumb_func
 188              	main:
 189              	.LFB332:
  73:Core/Src/main.c **** 
 190              		.loc 1 73 1 view -0
 191              		.cfi_startproc
 192              		@ args = 0, pretend = 0, frame = 264
 193              		@ frame_needed = 0, uses_anonymous_args = 0
 194 0000 2DE9F047 		push	{r4, r5, r6, r7, r8, r9, r10, lr}
 195              	.LCFI4:
 196              		.cfi_def_cfa_offset 32
 197              		.cfi_offset 4, -32
 198              		.cfi_offset 5, -28
 199              		.cfi_offset 6, -24
 200              		.cfi_offset 7, -20
ARM GAS  C:\Users\alexc\AppData\Local\Temp\ccyDAKxo.s 			page 15


 201              		.cfi_offset 8, -16
 202              		.cfi_offset 9, -12
 203              		.cfi_offset 10, -8
 204              		.cfi_offset 14, -4
 205 0004 C4B0     		sub	sp, sp, #272
 206              	.LCFI5:
 207              		.cfi_def_cfa_offset 304
  82:Core/Src/main.c **** 
 208              		.loc 1 82 3 view .LVU41
 209 0006 FFF7FEFF 		bl	HAL_Init
 210              	.LVL6:
  89:Core/Src/main.c **** 
 211              		.loc 1 89 3 view .LVU42
 212 000a FFF7FEFF 		bl	SystemClock_Config
 213              	.LVL7:
  94:Core/Src/main.c ****   static UART_HandleTypeDef huart2;         // LPUART1 → Virtual COM port
 214              		.loc 1 94 3 view .LVU43
  95:Core/Src/main.c ****   static TIM_HandleTypeDef htim3;           // TIM3 CH2 → PC7 (D9) servo PWM
 215              		.loc 1 95 3 view .LVU44
  96:Core/Src/main.c **** 
 216              		.loc 1 96 3 view .LVU45
 101:Core/Src/main.c ****   GPIO_InitTypeDef GPIO_InitStruct = {0};
 217              		.loc 1 101 3 view .LVU46
 218              	.LBB6:
 101:Core/Src/main.c ****   GPIO_InitTypeDef GPIO_InitStruct = {0};
 219              		.loc 1 101 3 view .LVU47
 101:Core/Src/main.c ****   GPIO_InitTypeDef GPIO_InitStruct = {0};
 220              		.loc 1 101 3 view .LVU48
 221 000e A54C     		ldr	r4, .L21
 222 0010 E36C     		ldr	r3, [r4, #76]
 223 0012 43F00103 		orr	r3, r3, #1
 224 0016 E364     		str	r3, [r4, #76]
 101:Core/Src/main.c ****   GPIO_InitTypeDef GPIO_InitStruct = {0};
 225              		.loc 1 101 3 view .LVU49
 226 0018 E36C     		ldr	r3, [r4, #76]
 227 001a 03F00103 		and	r3, r3, #1
 228 001e 0393     		str	r3, [sp, #12]
 101:Core/Src/main.c ****   GPIO_InitTypeDef GPIO_InitStruct = {0};
 229              		.loc 1 101 3 view .LVU50
 230 0020 039B     		ldr	r3, [sp, #12]
 231              	.LBE6:
 101:Core/Src/main.c ****   GPIO_InitTypeDef GPIO_InitStruct = {0};
 232              		.loc 1 101 3 view .LVU51
 102:Core/Src/main.c ****   GPIO_InitStruct.Pin   = GPIO_PIN_5;
 233              		.loc 1 102 3 view .LVU52
 102:Core/Src/main.c ****   GPIO_InitStruct.Pin   = GPIO_PIN_5;
 234              		.loc 1 102 20 is_stmt 0 view .LVU53
 235 0022 0026     		movs	r6, #0
 236 0024 3F96     		str	r6, [sp, #252]
 237 0026 4096     		str	r6, [sp, #256]
 238 0028 4196     		str	r6, [sp, #260]
 239 002a 4296     		str	r6, [sp, #264]
 240 002c 4396     		str	r6, [sp, #268]
 103:Core/Src/main.c ****   GPIO_InitStruct.Mode  = GPIO_MODE_OUTPUT_PP;
 241              		.loc 1 103 3 is_stmt 1 view .LVU54
 103:Core/Src/main.c ****   GPIO_InitStruct.Mode  = GPIO_MODE_OUTPUT_PP;
 242              		.loc 1 103 25 is_stmt 0 view .LVU55
ARM GAS  C:\Users\alexc\AppData\Local\Temp\ccyDAKxo.s 			page 16


 243 002e 4FF02009 		mov	r9, #32
 244 0032 CDF8FC90 		str	r9, [sp, #252]
 104:Core/Src/main.c ****   GPIO_InitStruct.Pull  = GPIO_NOPULL;
 245              		.loc 1 104 3 is_stmt 1 view .LVU56
 104:Core/Src/main.c ****   GPIO_InitStruct.Pull  = GPIO_NOPULL;
 246              		.loc 1 104 25 is_stmt 0 view .LVU57
 247 0036 0127     		movs	r7, #1
 248 0038 4097     		str	r7, [sp, #256]
 105:Core/Src/main.c ****   GPIO_InitStruct.Speed = GPIO_SPEED_FREQ_LOW;
 249              		.loc 1 105 3 is_stmt 1 view .LVU58
 106:Core/Src/main.c ****   HAL_GPIO_Init(GPIOA, &GPIO_InitStruct);
 250              		.loc 1 106 3 view .LVU59
 107:Core/Src/main.c **** 
 251              		.loc 1 107 3 view .LVU60
 252 003a 3FA9     		add	r1, sp, #252
 253 003c 4FF09040 		mov	r0, #1207959552
 254 0040 FFF7FEFF 		bl	HAL_GPIO_Init
 255              	.LVL8:
 112:Core/Src/main.c ****   GPIO_InitStruct.Mode  = GPIO_MODE_INPUT;
 256              		.loc 1 112 3 view .LVU61
 112:Core/Src/main.c ****   GPIO_InitStruct.Mode  = GPIO_MODE_INPUT;
 257              		.loc 1 112 25 is_stmt 0 view .LVU62
 258 0044 4FF48063 		mov	r3, #1024
 259 0048 3F93     		str	r3, [sp, #252]
 113:Core/Src/main.c ****   GPIO_InitStruct.Pull  = GPIO_PULLUP;
 260              		.loc 1 113 3 is_stmt 1 view .LVU63
 113:Core/Src/main.c ****   GPIO_InitStruct.Pull  = GPIO_PULLUP;
 261              		.loc 1 113 25 is_stmt 0 view .LVU64
 262 004a 4096     		str	r6, [sp, #256]
 114:Core/Src/main.c ****   GPIO_InitStruct.Speed = 0;  // not used for inputs
 263              		.loc 1 114 3 is_stmt 1 view .LVU65
 114:Core/Src/main.c ****   GPIO_InitStruct.Speed = 0;  // not used for inputs
 264              		.loc 1 114 25 is_stmt 0 view .LVU66
 265 004c 4197     		str	r7, [sp, #260]
 115:Core/Src/main.c ****   HAL_GPIO_Init(GPIOA, &GPIO_InitStruct);
 266              		.loc 1 115 3 is_stmt 1 view .LVU67
 115:Core/Src/main.c ****   HAL_GPIO_Init(GPIOA, &GPIO_InitStruct);
 267              		.loc 1 115 25 is_stmt 0 view .LVU68
 268 004e 4296     		str	r6, [sp, #264]
 116:Core/Src/main.c **** 
 269              		.loc 1 116 3 is_stmt 1 view .LVU69
 270 0050 3FA9     		add	r1, sp, #252
 271 0052 4FF09040 		mov	r0, #1207959552
 272 0056 FFF7FEFF 		bl	HAL_GPIO_Init
 273              	.LVL9:
 119:Core/Src/main.c ****   GPIO_InitStruct.Pin  = GPIO_PIN_0;
 274              		.loc 1 119 3 view .LVU70
 275              	.LBB7:
 119:Core/Src/main.c ****   GPIO_InitStruct.Pin  = GPIO_PIN_0;
 276              		.loc 1 119 3 view .LVU71
 119:Core/Src/main.c ****   GPIO_InitStruct.Pin  = GPIO_PIN_0;
 277              		.loc 1 119 3 view .LVU72
 278 005a E36C     		ldr	r3, [r4, #76]
 279 005c 43F40053 		orr	r3, r3, #8192
 280 0060 E364     		str	r3, [r4, #76]
 119:Core/Src/main.c ****   GPIO_InitStruct.Pin  = GPIO_PIN_0;
 281              		.loc 1 119 3 view .LVU73
ARM GAS  C:\Users\alexc\AppData\Local\Temp\ccyDAKxo.s 			page 17


 282 0062 E36C     		ldr	r3, [r4, #76]
 283 0064 03F40053 		and	r3, r3, #8192
 284 0068 0493     		str	r3, [sp, #16]
 119:Core/Src/main.c ****   GPIO_InitStruct.Pin  = GPIO_PIN_0;
 285              		.loc 1 119 3 view .LVU74
 286 006a 049B     		ldr	r3, [sp, #16]
 287              	.LBE7:
 119:Core/Src/main.c ****   GPIO_InitStruct.Pin  = GPIO_PIN_0;
 288              		.loc 1 119 3 view .LVU75
 120:Core/Src/main.c ****   GPIO_InitStruct.Mode = GPIO_MODE_ANALOG;
 289              		.loc 1 120 3 view .LVU76
 120:Core/Src/main.c ****   GPIO_InitStruct.Mode = GPIO_MODE_ANALOG;
 290              		.loc 1 120 24 is_stmt 0 view .LVU77
 291 006c 3F97     		str	r7, [sp, #252]
 121:Core/Src/main.c ****   GPIO_InitStruct.Pull = GPIO_NOPULL;
 292              		.loc 1 121 3 is_stmt 1 view .LVU78
 121:Core/Src/main.c ****   GPIO_InitStruct.Pull = GPIO_NOPULL;
 293              		.loc 1 121 24 is_stmt 0 view .LVU79
 294 006e 0323     		movs	r3, #3
 295 0070 4093     		str	r3, [sp, #256]
 122:Core/Src/main.c ****   HAL_GPIO_Init(GPIOA, &GPIO_InitStruct);
 296              		.loc 1 122 3 is_stmt 1 view .LVU80
 122:Core/Src/main.c ****   HAL_GPIO_Init(GPIOA, &GPIO_InitStruct);
 297              		.loc 1 122 24 is_stmt 0 view .LVU81
 298 0072 4196     		str	r6, [sp, #260]
 123:Core/Src/main.c ****   hadc1.Instance = ADC1;
 299              		.loc 1 123 3 is_stmt 1 view .LVU82
 300 0074 3FA9     		add	r1, sp, #252
 301 0076 4FF09040 		mov	r0, #1207959552
 302 007a FFF7FEFF 		bl	HAL_GPIO_Init
 303              	.LVL10:
 124:Core/Src/main.c ****   hadc1.Init.ClockPrescaler        = ADC_CLOCK_SYNC_PCLK_DIV2;
 304              		.loc 1 124 3 view .LVU83
 124:Core/Src/main.c ****   hadc1.Init.ClockPrescaler        = ADC_CLOCK_SYNC_PCLK_DIV2;
 305              		.loc 1 124 18 is_stmt 0 view .LVU84
 306 007e 8A4D     		ldr	r5, .L21+4
 307 0080 4FF0A043 		mov	r3, #1342177280
 308 0084 2B60     		str	r3, [r5]
 125:Core/Src/main.c ****   hadc1.Init.Resolution            = ADC_RESOLUTION_12B;
 309              		.loc 1 125 3 is_stmt 1 view .LVU85
 125:Core/Src/main.c ****   hadc1.Init.Resolution            = ADC_RESOLUTION_12B;
 310              		.loc 1 125 36 is_stmt 0 view .LVU86
 311 0086 4FF40033 		mov	r3, #131072
 312 008a 6B60     		str	r3, [r5, #4]
 126:Core/Src/main.c ****   hadc1.Init.DataAlign             = ADC_DATAALIGN_RIGHT;
 313              		.loc 1 126 3 is_stmt 1 view .LVU87
 126:Core/Src/main.c ****   hadc1.Init.DataAlign             = ADC_DATAALIGN_RIGHT;
 314              		.loc 1 126 36 is_stmt 0 view .LVU88
 315 008c AE60     		str	r6, [r5, #8]
 127:Core/Src/main.c ****   hadc1.Init.ScanConvMode          = ADC_SCAN_DISABLE;
 316              		.loc 1 127 3 is_stmt 1 view .LVU89
 127:Core/Src/main.c ****   hadc1.Init.ScanConvMode          = ADC_SCAN_DISABLE;
 317              		.loc 1 127 36 is_stmt 0 view .LVU90
 318 008e EE60     		str	r6, [r5, #12]
 128:Core/Src/main.c ****   hadc1.Init.EOCSelection          = ADC_EOC_SINGLE_CONV;
 319              		.loc 1 128 3 is_stmt 1 view .LVU91
 128:Core/Src/main.c ****   hadc1.Init.EOCSelection          = ADC_EOC_SINGLE_CONV;
ARM GAS  C:\Users\alexc\AppData\Local\Temp\ccyDAKxo.s 			page 18


 320              		.loc 1 128 36 is_stmt 0 view .LVU92
 321 0090 6E61     		str	r6, [r5, #20]
 129:Core/Src/main.c ****   hadc1.Init.ContinuousConvMode    = DISABLE;
 322              		.loc 1 129 3 is_stmt 1 view .LVU93
 129:Core/Src/main.c ****   hadc1.Init.ContinuousConvMode    = DISABLE;
 323              		.loc 1 129 36 is_stmt 0 view .LVU94
 324 0092 4FF00408 		mov	r8, #4
 325 0096 C5F81880 		str	r8, [r5, #24]
 130:Core/Src/main.c ****   hadc1.Init.NbrOfConversion       = 1;
 326              		.loc 1 130 3 is_stmt 1 view .LVU95
 130:Core/Src/main.c ****   hadc1.Init.NbrOfConversion       = 1;
 327              		.loc 1 130 36 is_stmt 0 view .LVU96
 328 009a 6E77     		strb	r6, [r5, #29]
 131:Core/Src/main.c ****   hadc1.Init.DiscontinuousConvMode = DISABLE;
 329              		.loc 1 131 3 is_stmt 1 view .LVU97
 131:Core/Src/main.c ****   hadc1.Init.DiscontinuousConvMode = DISABLE;
 330              		.loc 1 131 36 is_stmt 0 view .LVU98
 331 009c 2F62     		str	r7, [r5, #32]
 132:Core/Src/main.c ****   hadc1.Init.ExternalTrigConv      = ADC_SOFTWARE_START;
 332              		.loc 1 132 3 is_stmt 1 view .LVU99
 132:Core/Src/main.c ****   hadc1.Init.ExternalTrigConv      = ADC_SOFTWARE_START;
 333              		.loc 1 132 36 is_stmt 0 view .LVU100
 334 009e 85F82460 		strb	r6, [r5, #36]
 133:Core/Src/main.c ****   hadc1.Init.ExternalTrigConvEdge  = ADC_EXTERNALTRIGCONVEDGE_NONE;
 335              		.loc 1 133 3 is_stmt 1 view .LVU101
 133:Core/Src/main.c ****   hadc1.Init.ExternalTrigConvEdge  = ADC_EXTERNALTRIGCONVEDGE_NONE;
 336              		.loc 1 133 36 is_stmt 0 view .LVU102
 337 00a2 EE62     		str	r6, [r5, #44]
 134:Core/Src/main.c ****   hadc1.Init.OversamplingMode      = DISABLE;
 338              		.loc 1 134 3 is_stmt 1 view .LVU103
 134:Core/Src/main.c ****   hadc1.Init.OversamplingMode      = DISABLE;
 339              		.loc 1 134 36 is_stmt 0 view .LVU104
 340 00a4 2E63     		str	r6, [r5, #48]
 135:Core/Src/main.c ****   HAL_ADC_Init(&hadc1);
 341              		.loc 1 135 3 is_stmt 1 view .LVU105
 135:Core/Src/main.c ****   HAL_ADC_Init(&hadc1);
 342              		.loc 1 135 36 is_stmt 0 view .LVU106
 343 00a6 85F84060 		strb	r6, [r5, #64]
 136:Core/Src/main.c **** 
 344              		.loc 1 136 3 is_stmt 1 view .LVU107
 345 00aa 2846     		mov	r0, r5
 346 00ac FFF7FEFF 		bl	HAL_ADC_Init
 347              	.LVL11:
 138:Core/Src/main.c ****   sConfig.Channel      = ADC_CHANNEL_1;   // PA0 = ADC12_IN1
 348              		.loc 1 138 3 view .LVU108
 138:Core/Src/main.c ****   sConfig.Channel      = ADC_CHANNEL_1;   // PA0 = ADC12_IN1
 349              		.loc 1 138 26 is_stmt 0 view .LVU109
 350 00b0 4A46     		mov	r2, r9
 351 00b2 3146     		mov	r1, r6
 352 00b4 37A8     		add	r0, sp, #220
 353 00b6 FFF7FEFF 		bl	memset
 354              	.LVL12:
 139:Core/Src/main.c ****   sConfig.Rank         = ADC_REGULAR_RANK_1;
 355              		.loc 1 139 3 is_stmt 1 view .LVU110
 139:Core/Src/main.c ****   sConfig.Rank         = ADC_REGULAR_RANK_1;
 356              		.loc 1 139 24 is_stmt 0 view .LVU111
 357 00ba 7C4B     		ldr	r3, .L21+8
ARM GAS  C:\Users\alexc\AppData\Local\Temp\ccyDAKxo.s 			page 19


 358 00bc 3793     		str	r3, [sp, #220]
 140:Core/Src/main.c ****   sConfig.SamplingTime = ADC_SAMPLETIME_47CYCLES_5;
 359              		.loc 1 140 3 is_stmt 1 view .LVU112
 140:Core/Src/main.c ****   sConfig.SamplingTime = ADC_SAMPLETIME_47CYCLES_5;
 360              		.loc 1 140 24 is_stmt 0 view .LVU113
 361 00be 0623     		movs	r3, #6
 362 00c0 3893     		str	r3, [sp, #224]
 141:Core/Src/main.c ****   HAL_ADC_ConfigChannel(&hadc1, &sConfig);
 363              		.loc 1 141 3 is_stmt 1 view .LVU114
 141:Core/Src/main.c ****   HAL_ADC_ConfigChannel(&hadc1, &sConfig);
 364              		.loc 1 141 24 is_stmt 0 view .LVU115
 365 00c2 CDF8E480 		str	r8, [sp, #228]
 142:Core/Src/main.c **** 
 366              		.loc 1 142 3 is_stmt 1 view .LVU116
 367 00c6 37A9     		add	r1, sp, #220
 368 00c8 2846     		mov	r0, r5
 369 00ca FFF7FEFF 		bl	HAL_ADC_ConfigChannel
 370              	.LVL13:
 144:Core/Src/main.c **** 
 371              		.loc 1 144 3 view .LVU117
 372 00ce 7F21     		movs	r1, #127
 373 00d0 2846     		mov	r0, r5
 374 00d2 FFF7FEFF 		bl	HAL_ADCEx_Calibration_Start
 375              	.LVL14:
 149:Core/Src/main.c ****   PeriphClkInit.PeriphClockSelection = RCC_PERIPHCLK_LPUART1;
 376              		.loc 1 149 3 view .LVU118
 149:Core/Src/main.c ****   PeriphClkInit.PeriphClockSelection = RCC_PERIPHCLK_LPUART1;
 377              		.loc 1 149 28 is_stmt 0 view .LVU119
 378 00d6 5022     		movs	r2, #80
 379 00d8 3146     		mov	r1, r6
 380 00da 23A8     		add	r0, sp, #140
 381 00dc FFF7FEFF 		bl	memset
 382              	.LVL15:
 150:Core/Src/main.c ****   PeriphClkInit.Lpuart1ClockSelection = RCC_LPUART1CLKSOURCE_HSI;
 383              		.loc 1 150 3 is_stmt 1 view .LVU120
 150:Core/Src/main.c ****   PeriphClkInit.Lpuart1ClockSelection = RCC_LPUART1CLKSOURCE_HSI;
 384              		.loc 1 150 38 is_stmt 0 view .LVU121
 385 00e0 CDF88C90 		str	r9, [sp, #140]
 151:Core/Src/main.c ****   HAL_RCCEx_PeriphCLKConfig(&PeriphClkInit);
 386              		.loc 1 151 3 is_stmt 1 view .LVU122
 151:Core/Src/main.c ****   HAL_RCCEx_PeriphCLKConfig(&PeriphClkInit);
 387              		.loc 1 151 39 is_stmt 0 view .LVU123
 388 00e4 4FF40063 		mov	r3, #2048
 389 00e8 2993     		str	r3, [sp, #164]
 152:Core/Src/main.c ****   __HAL_RCC_LPUART1_CLK_ENABLE();
 390              		.loc 1 152 3 is_stmt 1 view .LVU124
 391 00ea 23A8     		add	r0, sp, #140
 392 00ec FFF7FEFF 		bl	HAL_RCCEx_PeriphCLKConfig
 393              	.LVL16:
 153:Core/Src/main.c ****   GPIO_InitStruct.Pin       = GPIO_PIN_2 | GPIO_PIN_3;
 394              		.loc 1 153 3 view .LVU125
 395              	.LBB8:
 153:Core/Src/main.c ****   GPIO_InitStruct.Pin       = GPIO_PIN_2 | GPIO_PIN_3;
 396              		.loc 1 153 3 view .LVU126
 153:Core/Src/main.c ****   GPIO_InitStruct.Pin       = GPIO_PIN_2 | GPIO_PIN_3;
 397              		.loc 1 153 3 view .LVU127
 398 00f0 E36D     		ldr	r3, [r4, #92]
ARM GAS  C:\Users\alexc\AppData\Local\Temp\ccyDAKxo.s 			page 20


 399 00f2 3B43     		orrs	r3, r3, r7
 400 00f4 E365     		str	r3, [r4, #92]
 153:Core/Src/main.c ****   GPIO_InitStruct.Pin       = GPIO_PIN_2 | GPIO_PIN_3;
 401              		.loc 1 153 3 view .LVU128
 402 00f6 E36D     		ldr	r3, [r4, #92]
 403 00f8 3B40     		ands	r3, r3, r7
 404 00fa 0593     		str	r3, [sp, #20]
 153:Core/Src/main.c ****   GPIO_InitStruct.Pin       = GPIO_PIN_2 | GPIO_PIN_3;
 405              		.loc 1 153 3 view .LVU129
 406 00fc 059B     		ldr	r3, [sp, #20]
 407              	.LBE8:
 153:Core/Src/main.c ****   GPIO_InitStruct.Pin       = GPIO_PIN_2 | GPIO_PIN_3;
 408              		.loc 1 153 3 view .LVU130
 154:Core/Src/main.c ****   GPIO_InitStruct.Mode      = GPIO_MODE_AF_PP;
 409              		.loc 1 154 3 view .LVU131
 154:Core/Src/main.c ****   GPIO_InitStruct.Mode      = GPIO_MODE_AF_PP;
 410              		.loc 1 154 29 is_stmt 0 view .LVU132
 411 00fe 4FF00C0A 		mov	r10, #12
 412 0102 CDF8FCA0 		str	r10, [sp, #252]
 155:Core/Src/main.c ****   GPIO_InitStruct.Pull      = GPIO_NOPULL;
 413              		.loc 1 155 3 is_stmt 1 view .LVU133
 155:Core/Src/main.c ****   GPIO_InitStruct.Pull      = GPIO_NOPULL;
 414              		.loc 1 155 29 is_stmt 0 view .LVU134
 415 0106 4FF00209 		mov	r9, #2
 416 010a CDF80091 		str	r9, [sp, #256]
 156:Core/Src/main.c ****   GPIO_InitStruct.Speed     = GPIO_SPEED_FREQ_LOW;
 417              		.loc 1 156 3 is_stmt 1 view .LVU135
 156:Core/Src/main.c ****   GPIO_InitStruct.Speed     = GPIO_SPEED_FREQ_LOW;
 418              		.loc 1 156 29 is_stmt 0 view .LVU136
 419 010e 4196     		str	r6, [sp, #260]
 157:Core/Src/main.c ****   GPIO_InitStruct.Alternate = GPIO_AF12_LPUART1;
 420              		.loc 1 157 3 is_stmt 1 view .LVU137
 157:Core/Src/main.c ****   GPIO_InitStruct.Alternate = GPIO_AF12_LPUART1;
 421              		.loc 1 157 29 is_stmt 0 view .LVU138
 422 0110 4296     		str	r6, [sp, #264]
 158:Core/Src/main.c ****   HAL_GPIO_Init(GPIOA, &GPIO_InitStruct);
 423              		.loc 1 158 3 is_stmt 1 view .LVU139
 158:Core/Src/main.c ****   HAL_GPIO_Init(GPIOA, &GPIO_InitStruct);
 424              		.loc 1 158 29 is_stmt 0 view .LVU140
 425 0112 CDF80CA1 		str	r10, [sp, #268]
 159:Core/Src/main.c **** 
 426              		.loc 1 159 3 is_stmt 1 view .LVU141
 427 0116 3FA9     		add	r1, sp, #252
 428 0118 4FF09040 		mov	r0, #1207959552
 429 011c FFF7FEFF 		bl	HAL_GPIO_Init
 430              	.LVL17:
 161:Core/Src/main.c ****   huart2.Init.BaudRate     = 9600;
 431              		.loc 1 161 3 view .LVU142
 161:Core/Src/main.c ****   huart2.Init.BaudRate     = 9600;
 432              		.loc 1 161 28 is_stmt 0 view .LVU143
 433 0120 634D     		ldr	r5, .L21+12
 434 0122 644B     		ldr	r3, .L21+16
 435 0124 2B60     		str	r3, [r5]
 162:Core/Src/main.c ****   huart2.Init.WordLength   = UART_WORDLENGTH_8B;
 436              		.loc 1 162 3 is_stmt 1 view .LVU144
 162:Core/Src/main.c ****   huart2.Init.WordLength   = UART_WORDLENGTH_8B;
 437              		.loc 1 162 28 is_stmt 0 view .LVU145
ARM GAS  C:\Users\alexc\AppData\Local\Temp\ccyDAKxo.s 			page 21


 438 0126 4FF41653 		mov	r3, #9600
 439 012a 6B60     		str	r3, [r5, #4]
 163:Core/Src/main.c ****   huart2.Init.StopBits     = UART_STOPBITS_1;
 440              		.loc 1 163 3 is_stmt 1 view .LVU146
 163:Core/Src/main.c ****   huart2.Init.StopBits     = UART_STOPBITS_1;
 441              		.loc 1 163 28 is_stmt 0 view .LVU147
 442 012c AE60     		str	r6, [r5, #8]
 164:Core/Src/main.c ****   huart2.Init.Parity       = UART_PARITY_NONE;
 443              		.loc 1 164 3 is_stmt 1 view .LVU148
 164:Core/Src/main.c ****   huart2.Init.Parity       = UART_PARITY_NONE;
 444              		.loc 1 164 28 is_stmt 0 view .LVU149
 445 012e EE60     		str	r6, [r5, #12]
 165:Core/Src/main.c ****   huart2.Init.Mode         = UART_MODE_TX_RX;
 446              		.loc 1 165 3 is_stmt 1 view .LVU150
 165:Core/Src/main.c ****   huart2.Init.Mode         = UART_MODE_TX_RX;
 447              		.loc 1 165 28 is_stmt 0 view .LVU151
 448 0130 2E61     		str	r6, [r5, #16]
 166:Core/Src/main.c ****   huart2.Init.HwFlowCtl    = UART_HWCONTROL_NONE;
 449              		.loc 1 166 3 is_stmt 1 view .LVU152
 166:Core/Src/main.c ****   huart2.Init.HwFlowCtl    = UART_HWCONTROL_NONE;
 450              		.loc 1 166 28 is_stmt 0 view .LVU153
 451 0132 C5F814A0 		str	r10, [r5, #20]
 167:Core/Src/main.c ****   HAL_UART_Init(&huart2);
 452              		.loc 1 167 3 is_stmt 1 view .LVU154
 167:Core/Src/main.c ****   HAL_UART_Init(&huart2);
 453              		.loc 1 167 28 is_stmt 0 view .LVU155
 454 0136 AE61     		str	r6, [r5, #24]
 168:Core/Src/main.c **** 
 455              		.loc 1 168 3 is_stmt 1 view .LVU156
 456 0138 2846     		mov	r0, r5
 457 013a FFF7FEFF 		bl	HAL_UART_Init
 458              	.LVL18:
 175:Core/Src/main.c ****   __HAL_RCC_TIM3_CLK_ENABLE();
 459              		.loc 1 175 3 view .LVU157
 460              	.LBB9:
 175:Core/Src/main.c ****   __HAL_RCC_TIM3_CLK_ENABLE();
 461              		.loc 1 175 3 view .LVU158
 175:Core/Src/main.c ****   __HAL_RCC_TIM3_CLK_ENABLE();
 462              		.loc 1 175 3 view .LVU159
 463 013e E36C     		ldr	r3, [r4, #76]
 464 0140 43EA0803 		orr	r3, r3, r8
 465 0144 E364     		str	r3, [r4, #76]
 175:Core/Src/main.c ****   __HAL_RCC_TIM3_CLK_ENABLE();
 466              		.loc 1 175 3 view .LVU160
 467 0146 E36C     		ldr	r3, [r4, #76]
 468 0148 03EA0803 		and	r3, r3, r8
 469 014c 0693     		str	r3, [sp, #24]
 175:Core/Src/main.c ****   __HAL_RCC_TIM3_CLK_ENABLE();
 470              		.loc 1 175 3 view .LVU161
 471 014e 069B     		ldr	r3, [sp, #24]
 472              	.LBE9:
 175:Core/Src/main.c ****   __HAL_RCC_TIM3_CLK_ENABLE();
 473              		.loc 1 175 3 view .LVU162
 176:Core/Src/main.c ****   GPIO_InitStruct.Pin       = GPIO_PIN_7;
 474              		.loc 1 176 3 view .LVU163
 475              	.LBB10:
 176:Core/Src/main.c ****   GPIO_InitStruct.Pin       = GPIO_PIN_7;
ARM GAS  C:\Users\alexc\AppData\Local\Temp\ccyDAKxo.s 			page 22


 476              		.loc 1 176 3 view .LVU164
 176:Core/Src/main.c ****   GPIO_InitStruct.Pin       = GPIO_PIN_7;
 477              		.loc 1 176 3 view .LVU165
 478 0150 A36D     		ldr	r3, [r4, #88]
 479 0152 43EA0903 		orr	r3, r3, r9
 480 0156 A365     		str	r3, [r4, #88]
 176:Core/Src/main.c ****   GPIO_InitStruct.Pin       = GPIO_PIN_7;
 481              		.loc 1 176 3 view .LVU166
 482 0158 A36D     		ldr	r3, [r4, #88]
 483 015a 03EA0903 		and	r3, r3, r9
 484 015e 0793     		str	r3, [sp, #28]
 176:Core/Src/main.c ****   GPIO_InitStruct.Pin       = GPIO_PIN_7;
 485              		.loc 1 176 3 view .LVU167
 486 0160 079B     		ldr	r3, [sp, #28]
 487              	.LBE10:
 176:Core/Src/main.c ****   GPIO_InitStruct.Pin       = GPIO_PIN_7;
 488              		.loc 1 176 3 view .LVU168
 177:Core/Src/main.c ****   GPIO_InitStruct.Mode      = GPIO_MODE_AF_PP;
 489              		.loc 1 177 3 view .LVU169
 177:Core/Src/main.c ****   GPIO_InitStruct.Mode      = GPIO_MODE_AF_PP;
 490              		.loc 1 177 29 is_stmt 0 view .LVU170
 491 0162 4FF0800A 		mov	r10, #128
 492 0166 CDF8FCA0 		str	r10, [sp, #252]
 178:Core/Src/main.c ****   GPIO_InitStruct.Pull      = GPIO_NOPULL;
 493              		.loc 1 178 3 is_stmt 1 view .LVU171
 178:Core/Src/main.c ****   GPIO_InitStruct.Pull      = GPIO_NOPULL;
 494              		.loc 1 178 29 is_stmt 0 view .LVU172
 495 016a CDF80091 		str	r9, [sp, #256]
 179:Core/Src/main.c ****   GPIO_InitStruct.Speed     = GPIO_SPEED_FREQ_LOW;
 496              		.loc 1 179 3 is_stmt 1 view .LVU173
 179:Core/Src/main.c ****   GPIO_InitStruct.Speed     = GPIO_SPEED_FREQ_LOW;
 497              		.loc 1 179 29 is_stmt 0 view .LVU174
 498 016e 4196     		str	r6, [sp, #260]
 180:Core/Src/main.c ****   GPIO_InitStruct.Alternate = GPIO_AF2_TIM3;
 499              		.loc 1 180 3 is_stmt 1 view .LVU175
 180:Core/Src/main.c ****   GPIO_InitStruct.Alternate = GPIO_AF2_TIM3;
 500              		.loc 1 180 29 is_stmt 0 view .LVU176
 501 0170 4296     		str	r6, [sp, #264]
 181:Core/Src/main.c ****   HAL_GPIO_Init(GPIOC, &GPIO_InitStruct);
 502              		.loc 1 181 3 is_stmt 1 view .LVU177
 181:Core/Src/main.c ****   HAL_GPIO_Init(GPIOC, &GPIO_InitStruct);
 503              		.loc 1 181 29 is_stmt 0 view .LVU178
 504 0172 CDF80C91 		str	r9, [sp, #268]
 182:Core/Src/main.c **** 
 505              		.loc 1 182 3 is_stmt 1 view .LVU179
 506 0176 3FA9     		add	r1, sp, #252
 507 0178 4F48     		ldr	r0, .L21+20
 508 017a FFF7FEFF 		bl	HAL_GPIO_Init
 509              	.LVL19:
 184:Core/Src/main.c ****   htim3.Init.Prescaler         = 15;          // 16 MHz / 16 = 1 MHz
 510              		.loc 1 184 3 view .LVU180
 184:Core/Src/main.c ****   htim3.Init.Prescaler         = 15;          // 16 MHz / 16 = 1 MHz
 511              		.loc 1 184 32 is_stmt 0 view .LVU181
 512 017e 4F4C     		ldr	r4, .L21+24
 513 0180 4F4B     		ldr	r3, .L21+28
 514 0182 2360     		str	r3, [r4]
 185:Core/Src/main.c ****   htim3.Init.CounterMode       = TIM_COUNTERMODE_UP;
ARM GAS  C:\Users\alexc\AppData\Local\Temp\ccyDAKxo.s 			page 23


 515              		.loc 1 185 3 is_stmt 1 view .LVU182
 185:Core/Src/main.c ****   htim3.Init.CounterMode       = TIM_COUNTERMODE_UP;
 516              		.loc 1 185 32 is_stmt 0 view .LVU183
 517 0184 0F23     		movs	r3, #15
 518 0186 6360     		str	r3, [r4, #4]
 186:Core/Src/main.c ****   htim3.Init.Period            = 19999;        // 20 ms
 519              		.loc 1 186 3 is_stmt 1 view .LVU184
 186:Core/Src/main.c ****   htim3.Init.Period            = 19999;        // 20 ms
 520              		.loc 1 186 32 is_stmt 0 view .LVU185
 521 0188 A660     		str	r6, [r4, #8]
 187:Core/Src/main.c ****   htim3.Init.ClockDivision     = TIM_CLOCKDIVISION_DIV1;
 522              		.loc 1 187 3 is_stmt 1 view .LVU186
 187:Core/Src/main.c ****   htim3.Init.ClockDivision     = TIM_CLOCKDIVISION_DIV1;
 523              		.loc 1 187 32 is_stmt 0 view .LVU187
 524 018a 44F61F63 		movw	r3, #19999
 525 018e E360     		str	r3, [r4, #12]
 188:Core/Src/main.c ****   htim3.Init.RepetitionCounter = 0;
 526              		.loc 1 188 3 is_stmt 1 view .LVU188
 188:Core/Src/main.c ****   htim3.Init.RepetitionCounter = 0;
 527              		.loc 1 188 32 is_stmt 0 view .LVU189
 528 0190 2661     		str	r6, [r4, #16]
 189:Core/Src/main.c ****   htim3.Init.AutoReloadPreload = TIM_AUTORELOAD_PRELOAD_ENABLE;
 529              		.loc 1 189 3 is_stmt 1 view .LVU190
 189:Core/Src/main.c ****   htim3.Init.AutoReloadPreload = TIM_AUTORELOAD_PRELOAD_ENABLE;
 530              		.loc 1 189 32 is_stmt 0 view .LVU191
 531 0192 6661     		str	r6, [r4, #20]
 190:Core/Src/main.c ****   HAL_TIM_PWM_Init(&htim3);
 532              		.loc 1 190 3 is_stmt 1 view .LVU192
 190:Core/Src/main.c ****   HAL_TIM_PWM_Init(&htim3);
 533              		.loc 1 190 32 is_stmt 0 view .LVU193
 534 0194 C4F818A0 		str	r10, [r4, #24]
 191:Core/Src/main.c **** 
 535              		.loc 1 191 3 is_stmt 1 view .LVU194
 536 0198 2046     		mov	r0, r4
 537 019a FFF7FEFF 		bl	HAL_TIM_PWM_Init
 538              	.LVL20:
 193:Core/Src/main.c ****   sConfigOC.OCMode       = TIM_OCMODE_PWM1;
 539              		.loc 1 193 3 view .LVU195
 193:Core/Src/main.c ****   sConfigOC.OCMode       = TIM_OCMODE_PWM1;
 540              		.loc 1 193 22 is_stmt 0 view .LVU196
 541 019e 1C96     		str	r6, [sp, #112]
 542 01a0 1D96     		str	r6, [sp, #116]
 543 01a2 1E96     		str	r6, [sp, #120]
 544 01a4 1F96     		str	r6, [sp, #124]
 545 01a6 2096     		str	r6, [sp, #128]
 546 01a8 2196     		str	r6, [sp, #132]
 547 01aa 2296     		str	r6, [sp, #136]
 194:Core/Src/main.c ****   sConfigOC.Pulse        = 1500;              // start at 0° (centre)
 548              		.loc 1 194 3 is_stmt 1 view .LVU197
 194:Core/Src/main.c ****   sConfigOC.Pulse        = 1500;              // start at 0° (centre)
 549              		.loc 1 194 26 is_stmt 0 view .LVU198
 550 01ac 6023     		movs	r3, #96
 551 01ae 1C93     		str	r3, [sp, #112]
 195:Core/Src/main.c ****   sConfigOC.OCPolarity   = TIM_OCPOLARITY_HIGH;
 552              		.loc 1 195 3 is_stmt 1 view .LVU199
 195:Core/Src/main.c ****   sConfigOC.OCPolarity   = TIM_OCPOLARITY_HIGH;
 553              		.loc 1 195 26 is_stmt 0 view .LVU200
ARM GAS  C:\Users\alexc\AppData\Local\Temp\ccyDAKxo.s 			page 24


 554 01b0 40F2DC59 		movw	r9, #1500
 555 01b4 CDF87490 		str	r9, [sp, #116]
 196:Core/Src/main.c ****   sConfigOC.OCFastMode   = TIM_OCFAST_DISABLE;
 556              		.loc 1 196 3 is_stmt 1 view .LVU201
 197:Core/Src/main.c ****   HAL_TIM_PWM_ConfigChannel(&htim3, &sConfigOC, TIM_CHANNEL_2);
 557              		.loc 1 197 3 view .LVU202
 198:Core/Src/main.c ****   HAL_TIM_PWM_Start(&htim3, TIM_CHANNEL_2);
 558              		.loc 1 198 3 view .LVU203
 559 01b8 4246     		mov	r2, r8
 560 01ba 1CA9     		add	r1, sp, #112
 561 01bc 2046     		mov	r0, r4
 562 01be FFF7FEFF 		bl	HAL_TIM_PWM_ConfigChannel
 563              	.LVL21:
 199:Core/Src/main.c **** 
 564              		.loc 1 199 3 view .LVU204
 565 01c2 4146     		mov	r1, r8
 566 01c4 2046     		mov	r0, r4
 567 01c6 FFF7FEFF 		bl	HAL_TIM_PWM_Start
 568              	.LVL22:
 206:Core/Src/main.c ****       "\r\n=== Blink Firmware Ready ===\r\n"
 569              		.loc 1 206 3 view .LVU205
 212:Core/Src/main.c **** 
 570              		.loc 1 212 3 view .LVU206
 571 01ca 4FF4FA73 		mov	r3, #500
 572 01ce 9C22     		movs	r2, #156
 573 01d0 3C49     		ldr	r1, .L21+32
 574 01d2 2846     		mov	r0, r5
 575 01d4 FFF7FEFF 		bl	HAL_UART_Transmit
 576              	.LVL23:
 221:Core/Src/main.c ****   int8_t   servo_dir     = 1;      // currently moving clockwise
 577              		.loc 1 221 3 view .LVU207
 222:Core/Src/main.c ****   uint32_t last_move_ms  = 0;      // timestamp of last servo move
 578              		.loc 1 222 3 view .LVU208
 223:Core/Src/main.c **** 
 579              		.loc 1 223 3 view .LVU209
 221:Core/Src/main.c ****   int8_t   servo_dir     = 1;      // currently moving clockwise
 580              		.loc 1 221 12 is_stmt 0 view .LVU210
 581 01d8 4D46     		mov	r5, r9
 582 01da 37E0     		b	.L14
 583              	.LVL24:
 584              	.L19:
 585              	.LBB11:
 586              	.LBB12:
 240:Core/Src/main.c **** 
 587              		.loc 1 240 7 is_stmt 1 view .LVU211
 588 01dc 2021     		movs	r1, #32
 589 01de 4FF09040 		mov	r0, #1207959552
 590              	.LVL25:
 240:Core/Src/main.c **** 
 591              		.loc 1 240 7 is_stmt 0 view .LVU212
 592 01e2 FFF7FEFF 		bl	HAL_GPIO_TogglePin
 593              	.LVL26:
 243:Core/Src/main.c ****       if ((now - last_move_ms) >= 1000)
 594              		.loc 1 243 7 is_stmt 1 view .LVU213
 243:Core/Src/main.c ****       if ((now - last_move_ms) >= 1000)
 595              		.loc 1 243 22 is_stmt 0 view .LVU214
 596 01e6 FFF7FEFF 		bl	HAL_GetTick
ARM GAS  C:\Users\alexc\AppData\Local\Temp\ccyDAKxo.s 			page 25


 597              	.LVL27:
 244:Core/Src/main.c ****       {
 598              		.loc 1 244 7 is_stmt 1 view .LVU215
 244:Core/Src/main.c ****       {
 599              		.loc 1 244 16 is_stmt 0 view .LVU216
 600 01ea 831B     		subs	r3, r0, r6
 244:Core/Src/main.c ****       {
 601              		.loc 1 244 10 view .LVU217
 602 01ec B3F57A7F 		cmp	r3, #1000
 603 01f0 16D3     		bcc	.L11
 246:Core/Src/main.c ****         servo_pos_us += servo_dir * 125;   // 45° = 125 µs
 604              		.loc 1 246 9 is_stmt 1 view .LVU218
 605              	.LVL28:
 247:Core/Src/main.c **** 
 606              		.loc 1 247 9 view .LVU219
 247:Core/Src/main.c **** 
 607              		.loc 1 247 35 is_stmt 0 view .LVU220
 608 01f2 C7EB4713 		rsb	r3, r7, r7, lsl #5
 609 01f6 07EB8303 		add	r3, r7, r3, lsl #2
 247:Core/Src/main.c **** 
 610              		.loc 1 247 22 view .LVU221
 611 01fa 1D44     		add	r5, r5, r3
 612              	.LVL29:
 250:Core/Src/main.c ****         {
 613              		.loc 1 250 9 is_stmt 1 view .LVU222
 250:Core/Src/main.c ****         {
 614              		.loc 1 250 12 is_stmt 0 view .LVU223
 615 01fc B5F5FA6F 		cmp	r5, #2000
 616 0200 06DA     		bge	.L15
 255:Core/Src/main.c ****         {
 617              		.loc 1 255 14 is_stmt 1 view .LVU224
 255:Core/Src/main.c ****         {
 618              		.loc 1 255 17 is_stmt 0 view .LVU225
 619 0202 B5F57A7F 		cmp	r5, #1000
 620 0206 07DC     		bgt	.L12
 258:Core/Src/main.c ****         }
 621              		.loc 1 258 24 view .LVU226
 622 0208 0127     		movs	r7, #1
 623              	.LVL30:
 257:Core/Src/main.c ****           servo_dir    = 1;    // hit -90°, reverse to clockwise
 624              		.loc 1 257 24 view .LVU227
 625 020a 4FF47A75 		mov	r5, #1000
 626              	.LVL31:
 257:Core/Src/main.c ****           servo_dir    = 1;    // hit -90°, reverse to clockwise
 627              		.loc 1 257 24 view .LVU228
 628 020e 03E0     		b	.L12
 629              	.LVL32:
 630              	.L15:
 253:Core/Src/main.c ****         }
 631              		.loc 1 253 24 view .LVU229
 632 0210 4FF0FF37 		mov	r7, #-1
 633              	.LVL33:
 252:Core/Src/main.c ****           servo_dir    = -1;   // hit +90°, reverse to anticlockwise
 634              		.loc 1 252 24 view .LVU230
 635 0214 4FF4FA65 		mov	r5, #2000
 636              	.LVL34:
 637              	.L12:
ARM GAS  C:\Users\alexc\AppData\Local\Temp\ccyDAKxo.s 			page 26


 261:Core/Src/main.c ****       }
 638              		.loc 1 261 9 is_stmt 1 view .LVU231
 639 0218 284B     		ldr	r3, .L21+24
 640 021a 1B68     		ldr	r3, [r3]
 641 021c 9D63     		str	r5, [r3, #56]
 246:Core/Src/main.c ****         servo_pos_us += servo_dir * 125;   // 45° = 125 µs
 642              		.loc 1 246 23 is_stmt 0 view .LVU232
 643 021e 0646     		mov	r6, r0
 644              	.LVL35:
 645              	.L11:
 264:Core/Src/main.c ****     }
 646              		.loc 1 264 7 is_stmt 1 view .LVU233
 647 0220 4FF4FA70 		mov	r0, #500
 648              	.LVL36:
 264:Core/Src/main.c ****     }
 649              		.loc 1 264 7 is_stmt 0 view .LVU234
 650 0224 FFF7FEFF 		bl	HAL_Delay
 651              	.LVL37:
 652 0228 2FE0     		b	.L10
 653              	.LVL38:
 654              	.L20:
 264:Core/Src/main.c ****     }
 655              		.loc 1 264 7 view .LVU235
 656              	.LBE12:
 269:Core/Src/main.c ****         "Analog: %u.%03uV, Sound: %s\r\n",
 657              		.loc 1 269 15 view .LVU236
 658 022a 274A     		ldr	r2, .L21+36
 659              	.L13:
 269:Core/Src/main.c ****         "Analog: %u.%03uV, Sound: %s\r\n",
 660              		.loc 1 269 15 discriminator 4 view .LVU237
 661 022c 0192     		str	r2, [sp, #4]
 662 022e 0094     		str	r4, [sp]
 663 0230 264A     		ldr	r2, .L21+40
 664 0232 5021     		movs	r1, #80
 665 0234 08A8     		add	r0, sp, #32
 666 0236 FFF7FEFF 		bl	snprintf
 667              	.LVL39:
 274:Core/Src/main.c **** 
 668              		.loc 1 274 5 is_stmt 1 discriminator 4 view .LVU238
 669 023a 6423     		movs	r3, #100
 670 023c 82B2     		uxth	r2, r0
 671 023e 08A9     		add	r1, sp, #32
 672 0240 1B48     		ldr	r0, .L21+12
 673              	.LVL40:
 274:Core/Src/main.c **** 
 674              		.loc 1 274 5 is_stmt 0 discriminator 4 view .LVU239
 675 0242 FFF7FEFF 		bl	HAL_UART_Transmit
 676              	.LVL41:
 276:Core/Src/main.c ****     /* USER CODE BEGIN 3 */
 677              		.loc 1 276 5 is_stmt 1 discriminator 4 view .LVU240
 678 0246 C820     		movs	r0, #200
 679 0248 FFF7FEFF 		bl	HAL_Delay
 680              	.LVL42:
 681              	.LBE11:
 225:Core/Src/main.c ****   {
 682              		.loc 1 225 9 discriminator 4 view .LVU241
 683              	.L14:
ARM GAS  C:\Users\alexc\AppData\Local\Temp\ccyDAKxo.s 			page 27


 225:Core/Src/main.c ****   {
 684              		.loc 1 225 3 view .LVU242
 685              	.LBB13:
 229:Core/Src/main.c ****     HAL_ADC_PollForConversion(&hadc1, 10);
 686              		.loc 1 229 5 view .LVU243
 687 024c 164C     		ldr	r4, .L21+4
 688 024e 2046     		mov	r0, r4
 689 0250 FFF7FEFF 		bl	HAL_ADC_Start
 690              	.LVL43:
 230:Core/Src/main.c ****     uint32_t raw = HAL_ADC_GetValue(&hadc1);
 691              		.loc 1 230 5 view .LVU244
 692 0254 0A21     		movs	r1, #10
 693 0256 2046     		mov	r0, r4
 694 0258 FFF7FEFF 		bl	HAL_ADC_PollForConversion
 695              	.LVL44:
 231:Core/Src/main.c ****     // Compute voltage in integer mV to avoid float printf issues: 3300mV / 4095
 696              		.loc 1 231 5 view .LVU245
 231:Core/Src/main.c ****     // Compute voltage in integer mV to avoid float printf issues: 3300mV / 4095
 697              		.loc 1 231 20 is_stmt 0 view .LVU246
 698 025c 2046     		mov	r0, r4
 699 025e FFF7FEFF 		bl	HAL_ADC_GetValue
 700              	.LVL45:
 233:Core/Src/main.c **** 
 701              		.loc 1 233 5 is_stmt 1 view .LVU247
 233:Core/Src/main.c **** 
 702              		.loc 1 233 32 is_stmt 0 view .LVU248
 703 0262 40F6E444 		movw	r4, #3300
 704 0266 04FB00F0 		mul	r0, r4, r0
 705              	.LVL46:
 233:Core/Src/main.c **** 
 706              		.loc 1 233 14 view .LVU249
 707 026a 194C     		ldr	r4, .L21+44
 708 026c A4FB0034 		umull	r3, r4, r4, r0
 709 0270 001B     		subs	r0, r0, r4
 710 0272 04EB5004 		add	r4, r4, r0, lsr #1
 711 0276 E40A     		lsrs	r4, r4, #11
 712              	.LVL47:
 236:Core/Src/main.c **** 
 713              		.loc 1 236 5 is_stmt 1 view .LVU250
 236:Core/Src/main.c **** 
 714              		.loc 1 236 29 is_stmt 0 view .LVU251
 715 0278 4FF48061 		mov	r1, #1024
 716 027c 4FF09040 		mov	r0, #1207959552
 717 0280 FFF7FEFF 		bl	HAL_GPIO_ReadPin
 718              	.LVL48:
 238:Core/Src/main.c ****     {
 719              		.loc 1 238 5 is_stmt 1 view .LVU252
 238:Core/Src/main.c ****     {
 720              		.loc 1 238 8 is_stmt 0 view .LVU253
 721 0284 8046     		mov	r8, r0
 722 0286 0028     		cmp	r0, #0
 723 0288 A8D0     		beq	.L19
 724              	.LVL49:
 725              	.L10:
 268:Core/Src/main.c ****     int len = snprintf(buf, sizeof(buf),
 726              		.loc 1 268 5 is_stmt 1 view .LVU254
 269:Core/Src/main.c ****         "Analog: %u.%03uV, Sound: %s\r\n",
ARM GAS  C:\Users\alexc\AppData\Local\Temp\ccyDAKxo.s 			page 28


 727              		.loc 1 269 5 view .LVU255
 271:Core/Src/main.c ****         (unsigned int)(voltage_mv % 1000UL),
 728              		.loc 1 271 35 is_stmt 0 view .LVU256
 729 028a 124B     		ldr	r3, .L21+48
 730 028c A3FB0423 		umull	r2, r3, r3, r4
 731 0290 9B09     		lsrs	r3, r3, #6
 272:Core/Src/main.c ****         (digital == GPIO_PIN_RESET) ? "DETECTED" : "quiet");
 732              		.loc 1 272 35 view .LVU257
 733 0292 4FF47A72 		mov	r2, #1000
 734 0296 02FB1344 		mls	r4, r2, r3, r4
 735              	.LVL50:
 269:Core/Src/main.c ****         "Analog: %u.%03uV, Sound: %s\r\n",
 736              		.loc 1 269 15 view .LVU258
 737 029a B8F1000F 		cmp	r8, #0
 738 029e C4D0     		beq	.L20
 269:Core/Src/main.c ****         "Analog: %u.%03uV, Sound: %s\r\n",
 739              		.loc 1 269 15 view .LVU259
 740 02a0 0D4A     		ldr	r2, .L21+52
 741 02a2 C3E7     		b	.L13
 742              	.L22:
 743              		.align	2
 744              	.L21:
 745 02a4 00100240 		.word	1073876992
 746 02a8 00000000 		.word	.LANCHOR0
 747 02ac 02003004 		.word	70254594
 748 02b0 00000000 		.word	.LANCHOR1
 749 02b4 00800040 		.word	1073774592
 750 02b8 00080048 		.word	1207961600
 751 02bc 00000000 		.word	.LANCHOR2
 752 02c0 00040040 		.word	1073742848
 753 02c4 14000000 		.word	.LC2
 754 02c8 08000000 		.word	.LC1
 755 02cc B4000000 		.word	.LC3
 756 02d0 01011000 		.word	1048833
 757 02d4 D34D6210 		.word	274877907
 758 02d8 00000000 		.word	.LC0
 759              	.LBE13:
 760              		.cfi_endproc
 761              	.LFE332:
 763              		.section	.bss.hadc1.2,"aw",%nobits
 764              		.align	2
 765              		.set	.LANCHOR0,. + 0
 768              	hadc1.2:
 769 0000 00000000 		.space	108
 769      00000000 
 769      00000000 
 769      00000000 
 769      00000000 
 770              		.section	.bss.htim3.0,"aw",%nobits
 771              		.align	2
 772              		.set	.LANCHOR2,. + 0
 775              	htim3.0:
 776 0000 00000000 		.space	76
 776      00000000 
 776      00000000 
 776      00000000 
 776      00000000 
ARM GAS  C:\Users\alexc\AppData\Local\Temp\ccyDAKxo.s 			page 29


 777              		.section	.bss.huart2.1,"aw",%nobits
 778              		.align	2
 779              		.set	.LANCHOR1,. + 0
 782              	huart2.1:
 783 0000 00000000 		.space	148
 783      00000000 
 783      00000000 
 783      00000000 
 783      00000000 
 784              		.text
 785              	.Letext0:
 786              		.file 3 "c:\\programdata\\chocolatey\\lib\\gcc-arm-embedded\\tools\\gcc-arm-none-eabi-10.3-2021.10
 787              		.file 4 "c:\\programdata\\chocolatey\\lib\\gcc-arm-embedded\\tools\\gcc-arm-none-eabi-10.3-2021.10
 788              		.file 5 "Drivers/CMSIS/Device/ST/STM32G4xx/Include/stm32g491xx.h"
 789              		.file 6 "Drivers/CMSIS/Device/ST/STM32G4xx/Include/stm32g4xx.h"
 790              		.file 7 "Drivers/STM32G4xx_HAL_Driver/Inc/stm32g4xx_hal_def.h"
 791              		.file 8 "Drivers/STM32G4xx_HAL_Driver/Inc/stm32g4xx_hal_rcc.h"
 792              		.file 9 "Drivers/STM32G4xx_HAL_Driver/Inc/stm32g4xx_hal_rcc_ex.h"
 793              		.file 10 "Drivers/STM32G4xx_HAL_Driver/Inc/stm32g4xx_hal_gpio.h"
 794              		.file 11 "Drivers/STM32G4xx_HAL_Driver/Inc/stm32g4xx_hal_dma.h"
 795              		.file 12 "Drivers/STM32G4xx_HAL_Driver/Inc/stm32g4xx_hal_adc.h"
 796              		.file 13 "Drivers/STM32G4xx_HAL_Driver/Inc/stm32g4xx_hal_tim.h"
 797              		.file 14 "Drivers/STM32G4xx_HAL_Driver/Inc/stm32g4xx_hal_uart.h"
 798              		.file 15 "Drivers/STM32G4xx_HAL_Driver/Inc/stm32g4xx_hal_pwr_ex.h"
 799              		.file 16 "Drivers/STM32G4xx_HAL_Driver/Inc/stm32g4xx_hal.h"
 800              		.file 17 "c:\\programdata\\chocolatey\\lib\\gcc-arm-embedded\\tools\\gcc-arm-none-eabi-10.3-2021.1
 801              		.file 18 "Drivers/STM32G4xx_HAL_Driver/Inc/stm32g4xx_hal_adc_ex.h"
 802              		.file 19 "<built-in>"
ARM GAS  C:\Users\alexc\AppData\Local\Temp\ccyDAKxo.s 			page 30

